cdebian_linux.config
ConfigCore
p0
(tRp1
(Vbase
p2
tp3
(dp4
Varches
p5
(lp6
Valpha
p7
aVamd64
p8
aVarm64
p9
aVarmel
p10
aVarmhf
p11
aVhppa
p12
aVi386
p13
aVm68k
p14
aVmips
p15
aVmipsel
p16
aVmipsn32
p17
aVmipsn32el
p18
aVmips64
p19
aVmips64el
p20
aVpowerpc
p21
aVpowerpcspe
p22
aVppc64
p23
aVppc64el
p24
aVs390
p25
aVs390x
p26
aVsh3
p27
aVsh4
p28
aVsparc
p29
aVsparc64
p30
aVtilegx
p31
aVx32
p32
asVfeaturesets
p33
(lp34
Vnone
p35
aVrt
p36
asVcompiler
p37
Vgcc-6
p38
ss(Vbuild
p39
tp40
(dp41
Vsigned-modules
p42
I00
sVdebug-info
p43
I01
ss(Vbase
p44
NVrt
p45
tp46
(dp47
Venabled
p48
I01
ss(Vdescription
p49
tp50
(dp51
Vpart-long-up
p52
VThis kernel is not suitable for SMP (multi-processor,\u000amulti-core or hyper-threaded) systems.
p53
sVpart-long-xen
p54
VThis kernel also runs on a Xen hypervisor.\u000aIt supports both privileged (dom0) and unprivileged (domU) operation.
p55
ss(Vrelations
p56
tp57
(dp58
Vinitramfs-tools
p59
Vinitramfs-tools (>= 0.120+deb8u2)
p60
sVgcc-6
p61
Vgcc-6 <!stage1 !cross>, gcc-6-@gnu-type-package@ <!stage1 cross>
p62
sVinitramfs-fallback
p63
Vlinux-initramfs-tool
p64
ss(Vimage
p65
tp66
(dp67
Vinitramfs-generators
p68
(lp69
Vinitramfs-tools
p70
aVinitramfs-fallback
p71
ass(Vabi
p72
tp73
(dp74
Vabiname
p75
V16
p76
sVignore-changes
p77
(lp78
V__cpuhp_*
p79
aVbpf_analyzer
p80
aVcpu_tlbstate
p81
aVcxl_*
p82
aVinet6_register_icmp_sender
p83
aVinet6_unregister_icmp_sender
p84
aVinet_frag_*
p85
aVinet_frags_*
p86
aVinjectm
p87
aVip6_expire_frag_queue
p88
aVip6_frag_*
p89
aVmce_*
p90
aVmm_iommu_*
p91
aVmv_mbus_*
p92
aVregister_cxl_calls
p93
aVregister_key_type
p94
aVtpm_*
p95
aVtpmm_chip_alloc
p96
aVunregister_cxl_calls
p97
aVzs_*
p98
aVmodule:drivers/block/loop
p99
aVmodule:drivers/crypto/ccp/*
p100
aVmodule:drivers/edac/edac_mce_amd
p101
aVmodule:drivers/hv/*
p102
aVmodule:drivers/iio/common/hid-sensors/*
p103
aVmodule:drivers/iio/common/st_sensors/**
p104
aVmodule:drivers/media/usb/dvb-usb/**
p105
aVmodule:drivers/media/usb/gspca/**
p106
aVmodule:drivers/misc/**
p107
aVmodule:drivers/net/ethernet/**
p108
aVmodule:drivers/net/tun
p109
aVmodule:drivers/net/usb/**
p110
aVmodule:drivers/net/wireless/**
p111
aVmodule:drivers/nfc/**
p112
aVmodule:drivers/nvdimm/*
p113
aVmodule:drivers/nvme/**
p114
aVmodule:drivers/power/supply/bq27xxx_battery
p115
aVmodule:drivers/s390/net/qeth
p116
aVmodule:drivers/s390/net/qeth*
p117
aVmodule:drivers/scsi/cxgbi/*
p118
aVmodule:drivers/scsi/esp_scsi
p119
aVmodule:drivers/scsi/libiscs*
p120
aVmodule:drivers/scsi/qla2xxx/qla2xxx
p121
aVmodule:drivers/scsi/ufs/*
p122
aVmodule:drivers/staging/**
p123
aVmodule:drivers/target/**
p124
aVmodule:drivers/usb/chipidea/**
p125
aVmodule:drivers/usb/gadget/**
p126
aVmodule:drivers/usb/host/**
p127
aVmodule:drivers/usb/musb/**
p128
aVmodule:drivers/usb/usbip/**
p129
aVmodule:drivers/vhost/vhost
p130
aVmodule:fs/crypto/fscrypto
p131
aVmodule:fs/nfs/nfs
p132
aVmodule:net/ceph/libceph
p133
aVmodule:net/netfilter/nft_reject
p134
aVmodule:net/nfc/hci/hci
p135
aVmodule:net/l2tp/**
p136
aVmodule:net/vmw_vsock/*
p137
aVmodule:sound/firewire/snd-firewire-lib
p138
aVmodule:sound/pci/hda/*
p139
aVbtree_*
p140
aVvisitor*
p141
aVcan_rx_register
p142
aVip6_xmit
p143
aVmodule:net/dccp/dccp
p144
aVmodule:net/rds/rds
p145
aVxprt_register_transport
p146
aVxprt_unregister_transport
p147
aVdevfreq_*
p148
aVdevm_devfreq_*
p149
aVupdate_devfreq
p150
aVmodule:drivers/infiniband/**
p151
aVacpi_ec_add_query_handler
p152
aVacpi_ec_remove_query_handler
p153
aVfirst_ec
p154
aVdebugfs_create_automount
p155
aV__gfn_*
p156
aV__kvm_*
p157
aVgfn_*
p158
aVkvm_*
p159
aVmark_page_dirty
p160
aVvcpu_*
p161
aVmodule:arch/powerpc/kvm/*
p162
aVmodule:arch/s390/kvm/*
p163
aVmodule:arch/x86/kvm/*
p164
aV*_evtchn_*
p165
aV*_xen_*
p166
aV*_xenballooned_*
p167
aV*_xenbus_*
p168
aV*_xenstore_*
p169
aVgnttab_*
p170
aVHYPERVISOR_*
p171
aVx86_hyper_xen
p172
aVxen_*
p173
aVxenbus_*
p174
aVreturn_address
p175
aVbr_netfilter_enable
p176
ass(Vbase
p177
Valpha
p178
tp179
(dp180
Vfeaturesets
p181
(lp182
Vnone
p183
asVkernel-arch
p184
Valpha
p185
ss(Vdescription
p186
g178
NValpha-smp
p187
tp188
(dp189
Vhardware
p190
VAlpha SMP
p191
sVhardware-long
p192
VDEC Alpha SMP systems with extended kernel start address (Wildfire, Titan, Marvel)
p193
ss(Vbuild
p194
g178
tp195
(dp196
Vsigned-modules
p197
I00
sVimage-file
p198
Varch/alpha/boot/vmlinux.gz
p199
ss(Vdescription
p200
g178
NValpha-generic
p201
tp202
(dp203
Vhardware
p204
VAlpha
p205
sVhardware-long
p206
VDEC Alpha systems with extended kernel start address (Wildfire, Titan, Marvel)
p207
ss(Vimage
p208
g178
tp209
(dp210
Vsuggests
p211
Vaboot, fdutils
p212
sVinstall-stem
p213
Vvmlinuz
p214
ss(Vbase
p215
g178
g183
tp216
(dp217
Vflavours
p218
(lp219
Valpha-generic
p220
aValpha-smp
p221
asVimplicit-flavour
p222
I01
ss(Vbase
p223
Vamd64
p224
tp225
(dp226
Vfeaturesets
p227
(lp228
Vnone
p229
aVrt
p230
asVkernel-arch
p231
Vx86
p232
ss(Vdescription
p233
g224
NVamd64
p234
tp235
(dp236
Vhardware
p237
V64-bit PCs
p238
sVhardware-long
p239
VPCs with AMD64, Intel 64 or VIA Nano processors
p240
ss(Vbuild
p241
g224
tp242
(dp243
Vvdso
p244
I01
sVimage-file
p245
Varch/x86/boot/bzImage
p246
sVdebug-info
p247
I01
ss(Vrelations
p248
g224
tp249
(dp250
Vheaders%gcc-6
p251
Vlinux-compiler-gcc-6-x86 (>= 4.9.82-1+deb9u1~)
p252
sVgcc-6
p253
Vgcc-6 (>= 6.3.0-18+deb9u1~) <!stage1 !cross>, gcc-6-@gnu-type-package@ (>= 6.3.0-18+deb9u1~) <!stage1 cross>
p254
ss(Vimage
p255
g224
tp256
(dp257
Vbreaks
p258
Vxserver-xorg-input-vmmouse (<< 1:13.0.99), qemu-system-x86 (<< 1:2.5+dfsg-1)
p259
sVinstall-stem
p260
Vvmlinuz
p261
sVbootloaders
p262
(lp263
Vgrub-pc
p264
aVgrub-efi-amd64
p265
aVextlinux
p266
ass(Vbase
p267
g224
Vnone
p268
tp269
(dp270
Vflavours
p271
(lp272
Vamd64
p273
ass(Vdescription
p274
g224
g268
Vamd64
p275
tp276
(dp277
Vparts
p278
(lp279
Vxen
p280
ass(Vbase
p281
g224
Vrt
p282
tp283
(dp284
Vflavours
p285
(lp286
Vamd64
p287
ass(Vbase
p288
Varm64
p289
tp290
(dp291
Vfeaturesets
p292
(lp293
Vnone
p294
asVkernel-arch
p295
Varm64
p296
ss(Vdescription
p297
g289
NVarm64
p298
tp299
(dp300
Vhardware
p301
V64-bit ARMv8 machines
p302
ss(Vbuild
p303
g289
tp304
(dp305
Vvdso
p306
I01
sVimage-file
p307
Varch/arm64/boot/Image
p308
sVdebug-info
p309
I01
ss(Vimage
p310
g289
NVarm64
p311
tp312
(dp313
s(Vimage
p314
g289
tp315
(dp316
Vbreaks
p317
Vlibmozjs185-1.0, libmozjs-24-0 (<< 24.2.0-5.1~)
p318
sVinstall-stem
p319
Vvmlinuz
p320
ss(Vbase
p321
g289
Vnone
p322
tp323
(dp324
Vflavours
p325
(lp326
Varm64
p327
ass(Vbase
p328
Varmel
p329
tp330
(dp331
g181
(lp332
g183
asVkernel-arch
p333
Varm
p334
ss(Vbuild
p335
g329
tp336
(dp337
Vsigned-modules
p338
I00
sVimage-file
p339
Varch/arm/boot/zImage
p340
ss(Vimage
p341
g329
NVmarvell
p342
tp343
(dp344
Vrecommends
p345
Vu-boot-tools
p346
sVbreaks
p347
Vflash-kernel (<< 3.57~)
p348
sVcheck-size-with-dtb
p349
I01
sVcheck-size
p350
L2097080L
ss(Vdescription
p351
g329
NVmarvell
p352
tp353
(dp354
Vhardware
p355
VMarvell Kirkwood/Orion
p356
sVhardware-long
p357
VMarvell Kirkwood based systems (SheevaPlug, QNAP TS-119/TS-219, etc)\u000aand Orion 5181, 5182 and 5281 based systems (QNAP TS-109/TS-209, etc)
p358
ss(Vrelations
p359
g329
tp360
(dp361
Vheaders%gcc-6
p362
Vlinux-compiler-gcc-6-arm
p363
ss(Vimage
p364
g329
tp365
(dp366
Vinstall-stem
p367
Vvmlinuz
p368
ss(g215
g329
g183
tp369
(dp370
g218
(lp371
Vmarvell
p372
asg222
I01
ss(Vbase
p373
Varmhf
p374
tp375
(dp376
g181
(lp377
g183
asVkernel-arch
p378
Varm
p379
ss(Vdescription
p380
g374
NVarmmp
p381
tp382
(dp383
Vhardware
p384
VARMv7 multiplatform compatible SoCs
p385
sVhardware-long
p386
VARMv7 multiplatform kernel. See\u000ahttps://wiki.debian.org/DebianKernel/ARMMP for details of supported\u000aplatforms
p387
ss(Vbuild
p388
g374
tp389
(dp390
Vvdso
p391
I01
sVimage-file
p392
Varch/arm/boot/zImage
p393
ss(Vdescription
p394
g374
NVarmmp-lpae
p395
tp396
(dp397
Vhardware
p398
VARMv7 multiplatform compatible SoCs supporting LPAE
p399
sVhardware-long
p400
VARMv7 multiplatform kernel supporting LPAE. See\u000ahttps://wiki.debian.org/DebianKernel/ARMMP for details of supported\u000aplatforms.
p401
ss(Vrelations
p402
g374
tp403
(dp404
Vheaders%gcc-6
p405
Vlinux-compiler-gcc-6-arm
p406
ss(Vimage
p407
g374
tp408
(dp409
Vinstall-stem
p410
Vvmlinuz
p411
ss(g215
g374
g183
tp412
(dp413
g218
(lp414
Varmmp
p415
aVarmmp-lpae
p416
asg222
I01
ss(Vbase
p417
Vhppa
p418
tp419
(dp420
g181
(lp421
g183
asVkernel-arch
p422
Vparisc
p423
ss(Vbuild
p424
g418
tp425
(dp426
Vsigned-modules
p427
I00
sVimage-file
p428
Vvmlinux
p429
ss(Vdescription
p430
g418
NVparisc64-smp
p431
tp432
(dp433
Vhardware
p434
Vmultiprocessor 64-bit PA-RISC
p435
sVhardware-long
p436
VHP PA-RISC 64-bit SMP systems with support for more than 4 GB RAM
p437
ss(Vbase
p438
g418
NVparisc64-smp
p439
tp440
(dp441
Vcflags
p442
V-fno-cse-follow-jumps
p443
sVoverride-host-type
p444
Vhppa64-linux-gnu
p445
ss(Vrelations
p446
g418
tp447
(dp448
Vgcc-6
p449
Vgcc-6 <!stage1 !cross>, binutils-hppa64-linux-gnu <!stage1 !cross>, gcc-6-hppa64-linux-gnu <!stage1 !cross>, gcc-6-hppa-linux-gnu <!stage1 cross>, binutils-hppa64-linux-gnu <!stage1 cross>, gcc-6-hppa64-linux-gnu <!stage1 cross>
p450
ss(Vdescription
p451
g418
NVparisc
p452
tp453
(dp454
Vhardware
p455
V32-bit PA-RISC
p456
sVhardware-long
p457
VHP PA-RISC 32-bit systems with max 4 GB RAM
p458
ss(Vimage
p459
g418
tp460
(dp461
Vsuggests
p462
Vpalo
p463
sVinstall-stem
p464
Vvmlinux
p465
ss(g215
g418
g183
tp466
(dp467
g218
(lp468
Vparisc
p469
aVparisc64-smp
p470
asg222
I01
ss(Vbase
p471
Vi386
p472
tp473
(dp474
Vfeaturesets
p475
(lp476
Vnone
p477
aVrt
p478
asVkernel-arch
p479
Vx86
p480
ss(Vbuild
p481
g472
tp482
(dp483
Vvdso
p484
I01
sVimage-file
p485
Varch/x86/boot/bzImage
p486
ss(Vdescription
p487
g472
NV686-pae
p488
tp489
(dp490
Vhardware
p491
Vmodern PCs
p492
sVhardware-long
p493
VPCs with one or more processors supporting PAE
p494
sVparts
p495
(lp496
Vpae
p497
ass(Vdescription
p498
g472
tp499
(dp500
Vpart-long-pae
p501
VThis kernel requires PAE (Physical Address Extension).\u000aThis feature is supported by the Intel Pentium Pro/II/III/4/4M/D, Xeon,\u000aCore and Atom; AMD Geode NX, Athlon (K7), Duron, Opteron, Sempron,\u000aTurion or Phenom; Transmeta Efficeon; VIA C7; and some other processors.
p502
ss(Vbuild
p503
g472
NV686-pae
p504
tp505
(dp506
Vdebug-info
p507
I01
ss(Vdescription
p508
g472
NV686
p509
tp510
(dp511
Vhardware
p512
Volder PCs
p513
sVhardware-long
p514
VPCs with one or more processors not supporting PAE
p515
ss(Vrelations
p516
g472
tp517
(dp518
Vheaders%gcc-6
p519
Vlinux-compiler-gcc-6-x86 (>= 4.9.82-1+deb9u1~)
p520
sVgcc-6
p521
Vgcc-6 (>= 6.3.0-18+deb9u1~) <!stage1 !cross>, gcc-6-@gnu-type-package@ (>= 6.3.0-18+deb9u1~) <!stage1 cross>
p522
ss(Vimage
p523
g472
tp524
(dp525
Vbreaks
p526
Vxserver-xorg-input-vmmouse (<< 1:13.0.99), qemu-system-x86 (<< 1:2.5+dfsg-1)
p527
sVinstall-stem
p528
Vvmlinuz
p529
sVbootloaders
p530
(lp531
Vgrub-pc
p532
aVextlinux
p533
ass(Vbase
p534
g472
Vnone
p535
tp536
(dp537
Vflavours
p538
(lp539
V686
p540
aV686-pae
p541
ass(Vdescription
p542
g472
g535
V686-pae
p543
tp544
(dp545
Vparts
p546
(lp547
Vxen
p548
ass(Vbase
p549
g472
Vrt
p550
tp551
(dp552
Vflavours
p553
(lp554
V686-pae
p555
ass(Vbase
p556
Vm68k
p557
tp558
(dp559
Vcflags
p560
V-ffreestanding
p561
sg181
(lp562
g183
asVkernel-arch
p563
Vm68k
p564
ss(Vbuild
p565
g557
tp566
(dp567
Vsigned-modules
p568
I00
sVimage-file
p569
Vvmlinux.gz
p570
ss(Vdescription
p571
g557
NVm68k
p572
tp573
(dp574
Vhardware
p575
VMotorola MC68020+ family
p576
ss(Vimage
p577
g557
tp578
(dp579
Vsuggests
p580
Vvmelilo, fdutils
p581
sVinstall-stem
p582
Vvmlinuz
p583
ss(g215
g557
g183
tp584
(dp585
g218
(lp586
Vm68k
p587
asg222
I01
ss(Vbase
p588
Vmips
p589
tp590
(dp591
g181
(lp592
g183
asVkernel-arch
p593
Vmips
p594
ss(Vbuild
p595
g589
tp596
(dp597
Vsigned-modules
p598
I00
sVimage-file
p599
Vvmlinux
p600
ss(Vimage
p601
g589
NV4kc-malta
p602
tp603
(dp604
Vconfigs
p605
(lp606
Vkernelarch-mips/config.malta
p607
aVkernelarch-mips/config.mips32r2
p608
ass(Vimage
p609
g589
NV5kc-malta
p610
tp611
(dp612
Vconfigs
p613
(lp614
Vkernelarch-mips/config.malta
p615
aVkernelarch-mips/config.mips64r2
p616
ass(Vdescription
p617
g589
NVocteon
p618
tp619
(dp620
Vhardware
p621
VOcteon
p622
sVhardware-long
p623
VCavium Networks Octeon
p624
ss(Vimage
p625
g589
NVocteon
p626
tp627
(dp628
Vconfigs
p629
(lp630
Vkernelarch-mips/config.octeon
p631
ass(Vimage
p632
g589
tp633
(dp634
Vinstall-stem
p635
Vvmlinux
p636
ss(Vdescription
p637
g589
NV5kc-malta
p638
tp639
(dp640
Vhardware
p641
VMIPS Malta (64-bit)
p642
sVhardware-long
p643
VMIPS Malta boards (64-bit)
p644
ss(Vdescription
p645
g589
NV4kc-malta
p646
tp647
(dp648
Vhardware
p649
VMIPS Malta
p650
sVhardware-long
p651
VMIPS Malta boards
p652
ss(g215
g589
g183
tp653
(dp654
g218
(lp655
V4kc-malta
p656
aV5kc-malta
p657
aVocteon
p658
asg222
I01
ss(Vbase
p659
Vmipsel
p660
tp661
(dp662
g181
(lp663
g183
asVkernel-arch
p664
Vmips
p665
ss(Vimage
p666
g660
NVloongson-3
p667
tp668
(dp669
Vconfigs
p670
(lp671
Vkernelarch-mips/config.loongson-3
p672
ass(Vbuild
p673
g660
tp674
(dp675
Vsigned-modules
p676
I00
sVimage-file
p677
Vvmlinux
p678
ss(Vimage
p679
g660
NV4kc-malta
p680
tp681
(dp682
Vconfigs
p683
(lp684
Vkernelarch-mips/config.malta
p685
aVkernelarch-mips/config.mips32r2
p686
ass(Vimage
p687
g660
NV5kc-malta
p688
tp689
(dp690
Vconfigs
p691
(lp692
Vkernelarch-mips/config.malta
p693
aVkernelarch-mips/config.mips64r2
p694
ass(Vdescription
p695
g660
NVocteon
p696
tp697
(dp698
Vhardware
p699
VOcteon
p700
sVhardware-long
p701
VCavium Networks Octeon
p702
ss(Vdescription
p703
g660
NVloongson-3
p704
tp705
(dp706
Vhardware
p707
VLoongson 3A/3B
p708
sVhardware-long
p709
VLoongson 3A or 3B based systems (e.g. from Loongson or Lemote)
p710
ss(Vimage
p711
g660
NVocteon
p712
tp713
(dp714
Vconfigs
p715
(lp716
Vkernelarch-mips/config.octeon
p717
ass(Vimage
p718
g660
tp719
(dp720
Vinstall-stem
p721
Vvmlinux
p722
ss(Vdescription
p723
g660
NV5kc-malta
p724
tp725
(dp726
Vhardware
p727
VMIPS Malta (64-bit)
p728
sVhardware-long
p729
VMIPS Malta boards (64-bit)
p730
ss(Vdescription
p731
g660
NV4kc-malta
p732
tp733
(dp734
Vhardware
p735
VMIPS Malta
p736
sVhardware-long
p737
VMIPS Malta boards
p738
ss(g215
g660
g183
tp739
(dp740
g218
(lp741
V4kc-malta
p742
aV5kc-malta
p743
aVloongson-3
p744
aVocteon
p745
asg222
I01
ss(Vbase
p746
Vmipsn32
p747
tp748
(dp749
Vfeaturesets
p750
(lp751
sVkernel-arch
p752
Vmips
p753
ss(Vbase
p754
Vmipsn32el
p755
tp756
(dp757
Vfeaturesets
p758
(lp759
sVkernel-arch
p760
Vmips
p761
ss(Vbase
p762
Vmips64
p763
tp764
(dp765
g181
(lp766
g183
asVkernel-arch
p767
Vmips
p768
ss(Vbuild
p769
g763
tp770
(dp771
Vsigned-modules
p772
I00
sVimage-file
p773
Vvmlinux
p774
ss(Vimage
p775
g763
NV5kc-malta
p776
tp777
(dp778
Vconfigs
p779
(lp780
Vkernelarch-mips/config.malta
p781
aVkernelarch-mips/config.mips64r2
p782
ass(Vdescription
p783
g763
NVocteon
p784
tp785
(dp786
Vhardware
p787
VOcteon
p788
sVhardware-long
p789
VCavium Networks Octeon
p790
ss(Vimage
p791
g763
tp792
(dp793
Vinstall-stem
p794
Vvmlinux
p795
ss(Vdescription
p796
g763
NV5kc-malta
p797
tp798
(dp799
Vhardware
p800
VMIPS Malta
p801
sVhardware-long
p802
VMIPS Malta boards
p803
ss(Vimage
p804
g763
NVocteon
p805
tp806
(dp807
Vconfigs
p808
(lp809
Vkernelarch-mips/config.octeon
p810
ass(g215
g763
g183
tp811
(dp812
g218
(lp813
V5kc-malta
p814
aVocteon
p815
asg222
I01
ss(Vbase
p816
Vmips64el
p817
tp818
(dp819
g181
(lp820
g183
asVkernel-arch
p821
Vmips
p822
ss(Vimage
p823
g817
NVloongson-3
p824
tp825
(dp826
Vconfigs
p827
(lp828
Vkernelarch-mips/config.loongson-3
p829
ass(Vbuild
p830
g817
tp831
(dp832
Vsigned-modules
p833
I00
sVimage-file
p834
Vvmlinux
p835
ss(Vimage
p836
g817
NV5kc-malta
p837
tp838
(dp839
Vconfigs
p840
(lp841
Vkernelarch-mips/config.malta
p842
aVkernelarch-mips/config.mips64r2
p843
ass(Vdescription
p844
g817
NVocteon
p845
tp846
(dp847
Vhardware
p848
VOcteon
p849
sVhardware-long
p850
VCavium Networks Octeon
p851
ss(Vdescription
p852
g817
NVloongson-3
p853
tp854
(dp855
Vhardware
p856
VLoongson 3A/3B
p857
sVhardware-long
p858
VLoongson 3A or 3B based systems (e.g. from Loongson or Lemote)
p859
ss(Vimage
p860
g817
tp861
(dp862
Vinstall-stem
p863
Vvmlinux
p864
ss(Vdescription
p865
g817
NV5kc-malta
p866
tp867
(dp868
Vhardware
p869
VMIPS Malta
p870
sVhardware-long
p871
VMIPS Malta boards
p872
ss(Vimage
p873
g817
NVocteon
p874
tp875
(dp876
Vconfigs
p877
(lp878
Vkernelarch-mips/config.octeon
p879
ass(g215
g817
g183
tp880
(dp881
g218
(lp882
V5kc-malta
p883
aVloongson-3
p884
aVocteon
p885
asg222
I01
ss(Vbase
p886
Vpowerpc
p887
tp888
(dp889
g181
(lp890
g183
asVkernel-arch
p891
Vpowerpc
p892
ss(Vdescription
p893
g887
NVpowerpc64
p894
tp895
(dp896
Vhardware
p897
V64-bit PowerPC
p898
ss(Vbuild
p899
g887
tp900
(dp901
Vvdso
p902
I01
sVimage-file
p903
Vvmlinux
p904
ss(Vimage
p905
g887
NVpowerpc-smp
p906
tp907
(dp908
Vconfigs
p909
(lp910
Vpowerpc/config.powerpc
p911
aVpowerpc/config.powerpc-smp
p912
ass(Vdescription
p913
g887
NVpowerpc
p914
tp915
(dp916
Vhardware
p917
Vuniprocessor 32-bit PowerPC
p918
ss(Vimage
p919
g887
NVpowerpc64
p920
tp921
(dp922
Vconfigs
p923
(lp924
Vkernelarch-powerpc/config-arch-64
p925
aVkernelarch-powerpc/config-arch-64-be
p926
ass(Vdescription
p927
g887
NVpowerpc-smp
p928
tp929
(dp930
Vhardware
p931
Vmultiprocessor 32-bit PowerPC
p932
ss(Vimage
p933
g887
tp934
(dp935
Vsuggests
p936
Vmkvmlinuz
p937
sVinstall-stem
p938
Vvmlinux
p939
sVconfigs
p940
(lp941
ss(g215
g887
g183
tp942
(dp943
g218
(lp944
Vpowerpc
p945
aVpowerpc-smp
p946
aVpowerpc64
p947
asg222
I01
ss(Vbase
p948
Vpowerpcspe
p949
tp950
(dp951
g181
(lp952
g183
asVkernel-arch
p953
Vpowerpc
p954
ss(Vbuild
p955
g949
tp956
(dp957
Vsigned-modules
p958
I00
sVimage-file
p959
Vvmlinux
p960
sVvdso
p961
I01
ss(Vimage
p962
g949
tp963
(dp964
Vsuggests
p965
Vmkvmlinuz
p966
sVinstall-stem
p967
Vvmlinux
p968
ss(Vdescription
p969
g949
tp970
(dp971
Vhardware
p972
V32-bit PowerPC with SPE (instead of AltiVec) with SMP support
p973
ss(g215
g949
g183
tp974
(dp975
g218
(lp976
Vpowerpcspe
p977
asg222
I01
ss(Vbase
p978
Vppc64
p979
tp980
(dp981
g181
(lp982
g183
asVkernel-arch
p983
Vpowerpc
p984
ss(Vdescription
p985
g979
NVpowerpc64
p986
tp987
(dp988
Vhardware
p989
V64-bit PowerPC
p990
ss(Vbuild
p991
g979
tp992
(dp993
Vsigned-modules
p994
I00
sVimage-file
p995
Vvmlinux
p996
sVvdso
p997
I01
ss(Vimage
p998
g979
NVpowerpc64
p999
tp1000
(dp1001
Vconfigs
p1002
(lp1003
Vkernelarch-powerpc/config-arch-64
p1004
aVkernelarch-powerpc/config-arch-64-be
p1005
ass(Vimage
p1006
g979
tp1007
(dp1008
Vsuggests
p1009
Vmkvmlinuz
p1010
sVinstall-stem
p1011
Vvmlinux
p1012
sVconfigs
p1013
(lp1014
ss(g215
g979
g183
tp1015
(dp1016
g218
(lp1017
Vpowerpc64
p1018
asg222
I01
ss(Vbase
p1019
Vppc64el
p1020
tp1021
(dp1022
g181
(lp1023
g183
asVkernel-arch
p1024
Vpowerpc
p1025
ss(Vdescription
p1026
g1020
NVpowerpc64le
p1027
tp1028
(dp1029
Vhardware
p1030
VLittle-endian 64-bit PowerPC
p1031
ss(Vbuild
p1032
g1020
tp1033
(dp1034
Vvdso
p1035
I01
sVimage-file
p1036
Vvmlinux
p1037
ss(Vimage
p1038
g1020
tp1039
(dp1040
Vsuggests
p1041
Vmkvmlinuz
p1042
sVinstall-stem
p1043
Vvmlinux
p1044
sVconfigs
p1045
(lp1046
ss(Vimage
p1047
g1020
NVpowerpc64le
p1048
tp1049
(dp1050
Vconfigs
p1051
(lp1052
Vkernelarch-powerpc/config-arch-64
p1053
aVkernelarch-powerpc/config-arch-64-le
p1054
ass(g215
g1020
g183
tp1055
(dp1056
g218
(lp1057
Vpowerpc64le
p1058
asg222
I01
ss(Vbase
p1059
Vs390
p1060
tp1061
(dp1062
Vfeaturesets
p1063
(lp1064
sVkernel-arch
p1065
Vs390
p1066
ss(Vbase
p1067
Vs390x
p1068
tp1069
(dp1070
g181
(lp1071
g183
asVkernel-arch
p1072
Vs390
p1073
ss(Vdescription
p1074
g1068
NVs390x
p1075
tp1076
(dp1077
Vhardware
p1078
VIBM zSeries
p1079
ss(Vbuild
p1080
g1068
tp1081
(dp1082
Vvdso
p1083
I01
sVimage-file
p1084
Varch/s390/boot/image
p1085
ss(Vbuild
p1086
g1068
NVs390x
p1087
tp1088
(dp1089
Vdebug-info
p1090
I01
ss(Vrelations
p1091
g1068
tp1092
(dp1093
Vheaders%gcc-6
p1094
Vlinux-compiler-gcc-6-s390
p1095
ss(Vimage
p1096
g1068
tp1097
(dp1098
Vinstall-stem
p1099
Vvmlinuz
p1100
sVbootloaders
p1101
(lp1102
Vs390-tools
p1103
ass(g215
g1068
g183
tp1104
(dp1105
g218
(lp1106
Vs390x
p1107
asg222
I01
ss(Vbase
p1108
Vsh3
p1109
tp1110
(dp1111
Vfeaturesets
p1112
(lp1113
sVkernel-arch
p1114
Vsh
p1115
ss(Vbase
p1116
Vsh4
p1117
tp1118
(dp1119
g181
(lp1120
g183
asVkernel-arch
p1121
Vsh
p1122
ss(Vbuild
p1123
g1117
tp1124
(dp1125
Vsigned-modules
p1126
I00
sVimage-file
p1127
Varch/sh/boot/zImage
p1128
ss(Vdescription
p1129
g1117
NVsh7751r
p1130
tp1131
(dp1132
Vhardware
p1133
Vsh7751r
p1134
sVhardware-long
p1135
VRenesas SH7751R R2D plus board
p1136
ss(Vdescription
p1137
g1117
NVsh7785lcr
p1138
tp1139
(dp1140
Vhardware
p1141
Vsh7785lcr
p1142
sVhardware-long
p1143
VRenesas SH7785 reference board
p1144
ss(Vimage
p1145
g1117
tp1146
(dp1147
Vinstall-stem
p1148
Vvmlinuz
p1149
ss(Vimage
p1150
g1117
NVsh7785lcr
p1151
tp1152
(dp1153
Vrecommends
p1154
Vu-boot-tools
p1155
sVcheck-size
p1156
L4194304L
ss(g215
g1117
g183
tp1157
(dp1158
g218
(lp1159
Vsh7751r
p1160
aVsh7785lcr
p1161
asg222
I01
ss(Vbase
p1162
Vsparc
p1163
tp1164
(dp1165
Vfeaturesets
p1166
(lp1167
sVkernel-arch
p1168
Vsparc
p1169
ss(Vbase
p1170
Vsparc64
p1171
tp1172
(dp1173
g181
(lp1174
g183
asVkernel-arch
p1175
Vsparc
p1176
ss(Vbuild
p1177
g1171
tp1178
(dp1179
Vsigned-modules
p1180
I00
sVimage-file
p1181
Varch/sparc/boot/zImage
p1182
ss(Vimage
p1183
g1171
NVsparc64
p1184
tp1185
(dp1186
Vconfigs
p1187
(lp1188
Vkernelarch-sparc/config-up
p1189
ass(Vimage
p1190
g1171
NVsparc64-smp
p1191
tp1192
(dp1193
Vconfigs
p1194
(lp1195
Vkernelarch-sparc/config-smp
p1196
ass(Vimage
p1197
g1171
tp1198
(dp1199
Vsuggests
p1200
Vsilo, fdutils
p1201
sVinstall-stem
p1202
Vvmlinuz
p1203
sVconfigs
p1204
(lp1205
ss(Vdescription
p1206
g1171
NVsparc64-smp
p1207
tp1208
(dp1209
Vhardware
p1210
Vmultiprocessor 64-bit UltraSPARC
p1211
ss(Vdescription
p1212
g1171
NVsparc64
p1213
tp1214
(dp1215
Vhardware
p1216
Vuniprocessor 64-bit UltraSPARC
p1217
ss(g215
g1171
g183
tp1218
(dp1219
g218
(lp1220
Vsparc64
p1221
aVsparc64-smp
p1222
asg222
I01
ss(Vbase
p1223
Vtilegx
p1224
tp1225
(dp1226
Vfeaturesets
p1227
(lp1228
sVkernel-arch
p1229
Vtile
p1230
ss(Vbase
p1231
Vx32
p1232
tp1233
(dp1234
Vfeaturesets
p1235
(lp1236
sVkernel-arch
p1237
Vx86
p1238
ss(Vdescription
p1239
NVrt
p1240
tp1241
(dp1242
Vparts
p1243
(lp1244
Vrt
p1245
asVpart-long-rt
p1246
VThis kernel includes the PREEMPT_RT realtime patch set.
p1247
sVpart-short-rt
p1248
VPREEMPT_RT
p1249
ss(Vabi
p1250
Ng1240
tp1251
(dp1252
Vignore-changes
p1253
(lp1254
V*
p1255
ass(Vversion
p1256
tp1257
(dp1258
Vupstream
p1259
V4.9
p1260
sVsource
p1261
V4.9.272-2
p1262
sVabiname
p1263
V4.9.0-16
p1264
sVabiname_base
p1265
V4.9.0
p1266
ss.