cdebian_linux.config
ConfigCore
p0
(tRp1
(Vbase
p2
tp3
(dp4
Varches
p5
(lp6
Valpha
p7
aVamd64
p8
aVarm64
p9
aVarmel
p10
aVarmhf
p11
aVhppa
p12
aVi386
p13
aVm68k
p14
aVmips
p15
aVmipsel
p16
aVmipsn32
p17
aVmipsn32el
p18
aVmips64
p19
aVmips64el
p20
aVpowerpc
p21
aVpowerpcspe
p22
aVppc64
p23
aVppc64el
p24
aVs390
p25
aVs390x
p26
aVsh3
p27
aVsh4
p28
aVsparc
p29
aVsparc64
p30
aVtilegx
p31
aVx32
p32
asVfeaturesets
p33
(lp34
Vnone
p35
aVrt
p36
asVcompiler
p37
Vgcc-6
p38
ss(Vbuild
p39
tp40
(dp41
Vsigned-modules
p42
I00
sVdebug-info
p43
I01
ss(Vbase
p44
NVrt
p45
tp46
(dp47
Venabled
p48
I01
ss(Vdescription
p49
tp50
(dp51
Vpart-long-up
p52
VThis kernel is not suitable for SMP (multi-processor,\u000amulti-core or hyper-threaded) systems.
p53
sVpart-long-xen
p54
VThis kernel also runs on a Xen hypervisor.\u000aIt supports both privileged (dom0) and unprivileged (domU) operation.
p55
ss(Vrelations
p56
tp57
(dp58
Vinitramfs-tools
p59
Vinitramfs-tools (>= 0.120+deb8u2)
p60
sVgcc-6
p61
Vgcc-6 <!stage1 !cross>, gcc-6-@gnu-type-package@ <!stage1 cross>
p62
sVinitramfs-fallback
p63
Vlinux-initramfs-tool
p64
ss(Vimage
p65
tp66
(dp67
Vinitramfs-generators
p68
(lp69
Vinitramfs-tools
p70
aVinitramfs-fallback
p71
ass(Vabi
p72
tp73
(dp74
Vabiname
p75
V8
p76
sVignore-changes
p77
(lp78
V__cpuhp_*
p79
aVbpf_analyzer
p80
aVcxl_*
p81
aVinet_frag_*
p82
aVinet_frags_*
p83
aVip6_expire_frag_queue
p84
aVip6_frag_*
p85
aVmm_iommu_*
p86
aVmv_mbus_*
p87
aVregister_cxl_calls
p88
aVregister_key_type
p89
aVtpm_*
p90
aVtpmm_chip_alloc
p91
aVunregister_cxl_calls
p92
aVmodule:drivers/block/loop
p93
aVmodule:drivers/crypto/ccp/*
p94
aVmodule:drivers/hv/*
p95
aVmodule:drivers/iio/common/hid-sensors/*
p96
aVmodule:drivers/iio/common/st_sensors/**
p97
aVmodule:drivers/net/ethernet/**
p98
aVmodule:drivers/net/wireless/**
p99
aVmodule:drivers/nfc/**
p100
aVmodule:drivers/nvdimm/*
p101
aVmodule:drivers/nvme/**
p102
aVmodule:drivers/power/supply/bq27xxx_battery
p103
aVmodule:drivers/s390/net/qeth
p104
aVmodule:drivers/s390/net/qeth*
p105
aVmodule:drivers/scsi/cxgbi/*
p106
aVmodule:drivers/scsi/esp_scsi
p107
aVmodule:drivers/scsi/libiscs*
p108
aVmodule:drivers/scsi/qla2xxx/qla2xxx
p109
aVmodule:drivers/scsi/ufs/*
p110
aVmodule:drivers/target/**
p111
aVmodule:drivers/usb/chipidea/**
p112
aVmodule:drivers/usb/gadget/**
p113
aVmodule:drivers/usb/host/**
p114
aVmodule:drivers/usb/musb/**
p115
aVmodule:fs/nfs/nfs
p116
aVmodule:net/ceph/libceph
p117
aVmodule:net/nfc/hci/hci
p118
aVmodule:net/l2tp/**
p119
aVmodule:net/vmw_vsock/*
p120
aVmodule:sound/firewire/snd-firewire-lib
p121
aVmodule:sound/pci/hda/*
p122
aVbtree_*
p123
aVvisitor*
p124
aVcan_rx_register
p125
aVip6_xmit
p126
aVmodule:net/dccp/dccp
p127
aVmodule:net/rds/rds
p128
aVdevfreq_*
p129
aVdevm_devfreq_*
p130
aVupdate_devfreq
p131
aVmodule:drivers/infiniband/**
p132
aVacpi_ec_add_query_handler
p133
aVacpi_ec_remove_query_handler
p134
aVfirst_ec
p135
aVdebugfs_create_automount
p136
aV__gfn_*
p137
aV__kvm_*
p138
aVgfn_*
p139
aVkvm_*
p140
aVmark_page_dirty
p141
aVvcpu_*
p142
aVmodule:arch/powerpc/kvm/*
p143
aVmodule:arch/s390/kvm/*
p144
aVmodule:arch/x86/kvm/*
p145
aV*_xen_*
p146
aV*_xenballooned_*
p147
aV*_xenbus_*
p148
aV*_xenstore_*
p149
aVgnttab_*
p150
aVHYPERVISOR_*
p151
aVx86_hyper_xen
p152
aVxen_*
p153
aVxenbus_*
p154
aVreturn_address
p155
ass(Vbase
p156
Valpha
p157
tp158
(dp159
Vfeaturesets
p160
(lp161
Vnone
p162
asVkernel-arch
p163
Valpha
p164
ss(Vdescription
p165
g157
NValpha-smp
p166
tp167
(dp168
Vhardware
p169
VAlpha SMP
p170
sVhardware-long
p171
VDEC Alpha SMP systems with extended kernel start address (Wildfire, Titan, Marvel)
p172
ss(Vbuild
p173
g157
tp174
(dp175
Vsigned-modules
p176
I00
sVimage-file
p177
Varch/alpha/boot/vmlinux.gz
p178
ss(Vdescription
p179
g157
NValpha-generic
p180
tp181
(dp182
Vhardware
p183
VAlpha
p184
sVhardware-long
p185
VDEC Alpha systems with extended kernel start address (Wildfire, Titan, Marvel)
p186
ss(Vimage
p187
g157
tp188
(dp189
Vsuggests
p190
Vaboot, fdutils
p191
sVinstall-stem
p192
Vvmlinuz
p193
ss(Vbase
p194
g157
g162
tp195
(dp196
Vflavours
p197
(lp198
Valpha-generic
p199
aValpha-smp
p200
asVimplicit-flavour
p201
I01
ss(Vbase
p202
Vamd64
p203
tp204
(dp205
Vfeaturesets
p206
(lp207
Vnone
p208
aVrt
p209
asVkernel-arch
p210
Vx86
p211
ss(Vdescription
p212
g203
NVamd64
p213
tp214
(dp215
Vhardware
p216
V64-bit PCs
p217
sVhardware-long
p218
VPCs with AMD64, Intel 64 or VIA Nano processors
p219
ss(Vbuild
p220
g203
tp221
(dp222
Vvdso
p223
I01
sVimage-file
p224
Varch/x86/boot/bzImage
p225
sVdebug-info
p226
I01
ss(Vrelations
p227
g203
tp228
(dp229
Vheaders%gcc-6
p230
Vlinux-compiler-gcc-6-x86 (>= 4.9.82-1+deb9u1~)
p231
sVgcc-6
p232
Vgcc-6 (>= 6.3.0-18+deb9u1~) <!stage1 !cross>, gcc-6-@gnu-type-package@ (>= 6.3.0-18+deb9u1~) <!stage1 cross>
p233
ss(Vimage
p234
g203
tp235
(dp236
Vbreaks
p237
Vxserver-xorg-input-vmmouse (<< 1:13.0.99)
p238
sVinstall-stem
p239
Vvmlinuz
p240
sVbootloaders
p241
(lp242
Vgrub-pc
p243
aVgrub-efi-amd64
p244
aVextlinux
p245
ass(Vbase
p246
g203
Vnone
p247
tp248
(dp249
Vflavours
p250
(lp251
Vamd64
p252
ass(Vdescription
p253
g203
g247
Vamd64
p254
tp255
(dp256
Vparts
p257
(lp258
Vxen
p259
ass(Vbase
p260
g203
Vrt
p261
tp262
(dp263
Vflavours
p264
(lp265
Vamd64
p266
ass(Vbase
p267
Varm64
p268
tp269
(dp270
Vfeaturesets
p271
(lp272
Vnone
p273
asVkernel-arch
p274
Varm64
p275
ss(Vdescription
p276
g268
NVarm64
p277
tp278
(dp279
Vhardware
p280
V64-bit ARMv8 machines
p281
ss(Vbuild
p282
g268
tp283
(dp284
Vvdso
p285
I01
sVimage-file
p286
Varch/arm64/boot/Image
p287
sVdebug-info
p288
I01
ss(Vimage
p289
g268
NVarm64
p290
tp291
(dp292
s(Vimage
p293
g268
tp294
(dp295
Vbreaks
p296
Vlibmozjs185-1.0, libmozjs-24-0 (<< 24.2.0-5.1~)
p297
sVinstall-stem
p298
Vvmlinuz
p299
ss(Vbase
p300
g268
Vnone
p301
tp302
(dp303
Vflavours
p304
(lp305
Varm64
p306
ass(Vbase
p307
Varmel
p308
tp309
(dp310
g160
(lp311
g162
asVkernel-arch
p312
Varm
p313
ss(Vbuild
p314
g308
tp315
(dp316
Vsigned-modules
p317
I00
sVimage-file
p318
Varch/arm/boot/zImage
p319
ss(Vimage
p320
g308
NVmarvell
p321
tp322
(dp323
Vrecommends
p324
Vu-boot-tools
p325
sVbreaks
p326
Vflash-kernel (<< 3.57~)
p327
sVcheck-size-with-dtb
p328
I01
sVcheck-size
p329
L2097080L
ss(Vdescription
p330
g308
NVmarvell
p331
tp332
(dp333
Vhardware
p334
VMarvell Kirkwood/Orion
p335
sVhardware-long
p336
VMarvell Kirkwood based systems (SheevaPlug, QNAP TS-119/TS-219, etc)\u000aand Orion 5181, 5182 and 5281 based systems (QNAP TS-109/TS-209, etc)
p337
ss(Vrelations
p338
g308
tp339
(dp340
Vheaders%gcc-6
p341
Vlinux-compiler-gcc-6-arm
p342
ss(Vimage
p343
g308
tp344
(dp345
Vinstall-stem
p346
Vvmlinuz
p347
ss(g194
g308
g162
tp348
(dp349
g197
(lp350
Vmarvell
p351
asg201
I01
ss(Vbase
p352
Varmhf
p353
tp354
(dp355
g160
(lp356
g162
asVkernel-arch
p357
Varm
p358
ss(Vdescription
p359
g353
NVarmmp
p360
tp361
(dp362
Vhardware
p363
VARMv7 multiplatform compatible SoCs
p364
sVhardware-long
p365
VARMv7 multiplatform kernel. See\u000ahttps://wiki.debian.org/DebianKernel/ARMMP for details of supported\u000aplatforms
p366
ss(Vbuild
p367
g353
tp368
(dp369
Vvdso
p370
I01
sVimage-file
p371
Varch/arm/boot/zImage
p372
ss(Vdescription
p373
g353
NVarmmp-lpae
p374
tp375
(dp376
Vhardware
p377
VARMv7 multiplatform compatible SoCs supporting LPAE
p378
sVhardware-long
p379
VARMv7 multiplatform kernel supporting LPAE. See\u000ahttps://wiki.debian.org/DebianKernel/ARMMP for details of supported\u000aplatforms.
p380
ss(Vrelations
p381
g353
tp382
(dp383
Vheaders%gcc-6
p384
Vlinux-compiler-gcc-6-arm
p385
ss(Vimage
p386
g353
tp387
(dp388
Vinstall-stem
p389
Vvmlinuz
p390
ss(g194
g353
g162
tp391
(dp392
g197
(lp393
Varmmp
p394
aVarmmp-lpae
p395
asg201
I01
ss(Vbase
p396
Vhppa
p397
tp398
(dp399
g160
(lp400
g162
asVkernel-arch
p401
Vparisc
p402
ss(Vbuild
p403
g397
tp404
(dp405
Vsigned-modules
p406
I00
sVimage-file
p407
Vvmlinux
p408
ss(Vdescription
p409
g397
NVparisc64-smp
p410
tp411
(dp412
Vhardware
p413
Vmultiprocessor 64-bit PA-RISC
p414
sVhardware-long
p415
VHP PA-RISC 64-bit SMP systems with support for more than 4 GB RAM
p416
ss(Vbase
p417
g397
NVparisc64-smp
p418
tp419
(dp420
Vcflags
p421
V-fno-cse-follow-jumps
p422
sVoverride-host-type
p423
Vhppa64-linux-gnu
p424
ss(Vrelations
p425
g397
tp426
(dp427
Vgcc-6
p428
Vgcc-6 <!stage1 !cross>, binutils-hppa64-linux-gnu <!stage1 !cross>, gcc-6-hppa64-linux-gnu <!stage1 !cross>, gcc-6-hppa-linux-gnu <!stage1 cross>, binutils-hppa64-linux-gnu <!stage1 cross>, gcc-6-hppa64-linux-gnu <!stage1 cross>
p429
ss(Vdescription
p430
g397
NVparisc
p431
tp432
(dp433
Vhardware
p434
V32-bit PA-RISC
p435
sVhardware-long
p436
VHP PA-RISC 32-bit systems with max 4 GB RAM
p437
ss(Vimage
p438
g397
tp439
(dp440
Vsuggests
p441
Vpalo
p442
sVinstall-stem
p443
Vvmlinux
p444
ss(g194
g397
g162
tp445
(dp446
g197
(lp447
Vparisc
p448
aVparisc64-smp
p449
asg201
I01
ss(Vbase
p450
Vi386
p451
tp452
(dp453
Vfeaturesets
p454
(lp455
Vnone
p456
aVrt
p457
asVkernel-arch
p458
Vx86
p459
ss(Vbuild
p460
g451
tp461
(dp462
Vvdso
p463
I01
sVimage-file
p464
Varch/x86/boot/bzImage
p465
ss(Vdescription
p466
g451
NV686-pae
p467
tp468
(dp469
Vhardware
p470
Vmodern PCs
p471
sVhardware-long
p472
VPCs with one or more processors supporting PAE
p473
sVparts
p474
(lp475
Vpae
p476
ass(Vdescription
p477
g451
tp478
(dp479
Vpart-long-pae
p480
VThis kernel requires PAE (Physical Address Extension).\u000aThis feature is supported by the Intel Pentium Pro/II/III/4/4M/D, Xeon,\u000aCore and Atom; AMD Geode NX, Athlon (K7), Duron, Opteron, Sempron,\u000aTurion or Phenom; Transmeta Efficeon; VIA C7; and some other processors.
p481
ss(Vbuild
p482
g451
NV686-pae
p483
tp484
(dp485
Vdebug-info
p486
I01
ss(Vdescription
p487
g451
NV686
p488
tp489
(dp490
Vhardware
p491
Volder PCs
p492
sVhardware-long
p493
VPCs with one or more processors not supporting PAE
p494
ss(Vrelations
p495
g451
tp496
(dp497
Vheaders%gcc-6
p498
Vlinux-compiler-gcc-6-x86 (>= 4.9.82-1+deb9u1~)
p499
sVgcc-6
p500
Vgcc-6 (>= 6.3.0-18+deb9u1~) <!stage1 !cross>, gcc-6-@gnu-type-package@ (>= 6.3.0-18+deb9u1~) <!stage1 cross>
p501
ss(Vimage
p502
g451
tp503
(dp504
Vbreaks
p505
Vxserver-xorg-input-vmmouse (<< 1:13.0.99)
p506
sVinstall-stem
p507
Vvmlinuz
p508
sVbootloaders
p509
(lp510
Vgrub-pc
p511
aVextlinux
p512
ass(Vbase
p513
g451
Vnone
p514
tp515
(dp516
Vflavours
p517
(lp518
V686
p519
aV686-pae
p520
ass(Vdescription
p521
g451
g514
V686-pae
p522
tp523
(dp524
Vparts
p525
(lp526
Vxen
p527
ass(Vbase
p528
g451
Vrt
p529
tp530
(dp531
Vflavours
p532
(lp533
V686-pae
p534
ass(Vbase
p535
Vm68k
p536
tp537
(dp538
Vcflags
p539
V-ffreestanding
p540
sg160
(lp541
g162
asVkernel-arch
p542
Vm68k
p543
ss(Vbuild
p544
g536
tp545
(dp546
Vsigned-modules
p547
I00
sVimage-file
p548
Vvmlinux.gz
p549
ss(Vdescription
p550
g536
NVm68k
p551
tp552
(dp553
Vhardware
p554
VMotorola MC68020+ family
p555
ss(Vimage
p556
g536
tp557
(dp558
Vsuggests
p559
Vvmelilo, fdutils
p560
sVinstall-stem
p561
Vvmlinuz
p562
ss(g194
g536
g162
tp563
(dp564
g197
(lp565
Vm68k
p566
asg201
I01
ss(Vbase
p567
Vmips
p568
tp569
(dp570
g160
(lp571
g162
asVkernel-arch
p572
Vmips
p573
ss(Vbuild
p574
g568
tp575
(dp576
Vsigned-modules
p577
I00
sVimage-file
p578
Vvmlinux
p579
ss(Vimage
p580
g568
NV4kc-malta
p581
tp582
(dp583
Vconfigs
p584
(lp585
Vkernelarch-mips/config.malta
p586
aVkernelarch-mips/config.mips32r2
p587
ass(Vimage
p588
g568
NV5kc-malta
p589
tp590
(dp591
Vconfigs
p592
(lp593
Vkernelarch-mips/config.malta
p594
aVkernelarch-mips/config.mips64r2
p595
ass(Vdescription
p596
g568
NVocteon
p597
tp598
(dp599
Vhardware
p600
VOcteon
p601
sVhardware-long
p602
VCavium Networks Octeon
p603
ss(Vimage
p604
g568
NVocteon
p605
tp606
(dp607
Vconfigs
p608
(lp609
Vkernelarch-mips/config.octeon
p610
ass(Vimage
p611
g568
tp612
(dp613
Vinstall-stem
p614
Vvmlinux
p615
ss(Vdescription
p616
g568
NV5kc-malta
p617
tp618
(dp619
Vhardware
p620
VMIPS Malta (64-bit)
p621
sVhardware-long
p622
VMIPS Malta boards (64-bit)
p623
ss(Vdescription
p624
g568
NV4kc-malta
p625
tp626
(dp627
Vhardware
p628
VMIPS Malta
p629
sVhardware-long
p630
VMIPS Malta boards
p631
ss(g194
g568
g162
tp632
(dp633
g197
(lp634
V4kc-malta
p635
aV5kc-malta
p636
aVocteon
p637
asg201
I01
ss(Vbase
p638
Vmipsel
p639
tp640
(dp641
g160
(lp642
g162
asVkernel-arch
p643
Vmips
p644
ss(Vimage
p645
g639
NVloongson-3
p646
tp647
(dp648
Vconfigs
p649
(lp650
Vkernelarch-mips/config.loongson-3
p651
ass(Vbuild
p652
g639
tp653
(dp654
Vsigned-modules
p655
I00
sVimage-file
p656
Vvmlinux
p657
ss(Vimage
p658
g639
NV4kc-malta
p659
tp660
(dp661
Vconfigs
p662
(lp663
Vkernelarch-mips/config.malta
p664
aVkernelarch-mips/config.mips32r2
p665
ass(Vimage
p666
g639
NV5kc-malta
p667
tp668
(dp669
Vconfigs
p670
(lp671
Vkernelarch-mips/config.malta
p672
aVkernelarch-mips/config.mips64r2
p673
ass(Vdescription
p674
g639
NVocteon
p675
tp676
(dp677
Vhardware
p678
VOcteon
p679
sVhardware-long
p680
VCavium Networks Octeon
p681
ss(Vdescription
p682
g639
NVloongson-3
p683
tp684
(dp685
Vhardware
p686
VLoongson 3A/3B
p687
sVhardware-long
p688
VLoongson 3A or 3B based systems (e.g. from Loongson or Lemote)
p689
ss(Vimage
p690
g639
NVocteon
p691
tp692
(dp693
Vconfigs
p694
(lp695
Vkernelarch-mips/config.octeon
p696
ass(Vimage
p697
g639
tp698
(dp699
Vinstall-stem
p700
Vvmlinux
p701
ss(Vdescription
p702
g639
NV5kc-malta
p703
tp704
(dp705
Vhardware
p706
VMIPS Malta (64-bit)
p707
sVhardware-long
p708
VMIPS Malta boards (64-bit)
p709
ss(Vdescription
p710
g639
NV4kc-malta
p711
tp712
(dp713
Vhardware
p714
VMIPS Malta
p715
sVhardware-long
p716
VMIPS Malta boards
p717
ss(g194
g639
g162
tp718
(dp719
g197
(lp720
V4kc-malta
p721
aV5kc-malta
p722
aVloongson-3
p723
aVocteon
p724
asg201
I01
ss(Vbase
p725
Vmipsn32
p726
tp727
(dp728
Vfeaturesets
p729
(lp730
sVkernel-arch
p731
Vmips
p732
ss(Vbase
p733
Vmipsn32el
p734
tp735
(dp736
Vfeaturesets
p737
(lp738
sVkernel-arch
p739
Vmips
p740
ss(Vbase
p741
Vmips64
p742
tp743
(dp744
g160
(lp745
g162
asVkernel-arch
p746
Vmips
p747
ss(Vbuild
p748
g742
tp749
(dp750
Vsigned-modules
p751
I00
sVimage-file
p752
Vvmlinux
p753
ss(Vimage
p754
g742
NV5kc-malta
p755
tp756
(dp757
Vconfigs
p758
(lp759
Vkernelarch-mips/config.malta
p760
aVkernelarch-mips/config.mips64r2
p761
ass(Vdescription
p762
g742
NVocteon
p763
tp764
(dp765
Vhardware
p766
VOcteon
p767
sVhardware-long
p768
VCavium Networks Octeon
p769
ss(Vimage
p770
g742
tp771
(dp772
Vinstall-stem
p773
Vvmlinux
p774
ss(Vdescription
p775
g742
NV5kc-malta
p776
tp777
(dp778
Vhardware
p779
VMIPS Malta
p780
sVhardware-long
p781
VMIPS Malta boards
p782
ss(Vimage
p783
g742
NVocteon
p784
tp785
(dp786
Vconfigs
p787
(lp788
Vkernelarch-mips/config.octeon
p789
ass(g194
g742
g162
tp790
(dp791
g197
(lp792
V5kc-malta
p793
aVocteon
p794
asg201
I01
ss(Vbase
p795
Vmips64el
p796
tp797
(dp798
g160
(lp799
g162
asVkernel-arch
p800
Vmips
p801
ss(Vimage
p802
g796
NVloongson-3
p803
tp804
(dp805
Vconfigs
p806
(lp807
Vkernelarch-mips/config.loongson-3
p808
ass(Vbuild
p809
g796
tp810
(dp811
Vsigned-modules
p812
I00
sVimage-file
p813
Vvmlinux
p814
ss(Vimage
p815
g796
NV5kc-malta
p816
tp817
(dp818
Vconfigs
p819
(lp820
Vkernelarch-mips/config.malta
p821
aVkernelarch-mips/config.mips64r2
p822
ass(Vdescription
p823
g796
NVocteon
p824
tp825
(dp826
Vhardware
p827
VOcteon
p828
sVhardware-long
p829
VCavium Networks Octeon
p830
ss(Vdescription
p831
g796
NVloongson-3
p832
tp833
(dp834
Vhardware
p835
VLoongson 3A/3B
p836
sVhardware-long
p837
VLoongson 3A or 3B based systems (e.g. from Loongson or Lemote)
p838
ss(Vimage
p839
g796
tp840
(dp841
Vinstall-stem
p842
Vvmlinux
p843
ss(Vdescription
p844
g796
NV5kc-malta
p845
tp846
(dp847
Vhardware
p848
VMIPS Malta
p849
sVhardware-long
p850
VMIPS Malta boards
p851
ss(Vimage
p852
g796
NVocteon
p853
tp854
(dp855
Vconfigs
p856
(lp857
Vkernelarch-mips/config.octeon
p858
ass(g194
g796
g162
tp859
(dp860
g197
(lp861
V5kc-malta
p862
aVloongson-3
p863
aVocteon
p864
asg201
I01
ss(Vbase
p865
Vpowerpc
p866
tp867
(dp868
g160
(lp869
g162
asVkernel-arch
p870
Vpowerpc
p871
ss(Vdescription
p872
g866
NVpowerpc64
p873
tp874
(dp875
Vhardware
p876
V64-bit PowerPC
p877
ss(Vbuild
p878
g866
tp879
(dp880
Vvdso
p881
I01
sVimage-file
p882
Vvmlinux
p883
ss(Vimage
p884
g866
NVpowerpc-smp
p885
tp886
(dp887
Vconfigs
p888
(lp889
Vpowerpc/config.powerpc
p890
aVpowerpc/config.powerpc-smp
p891
ass(Vdescription
p892
g866
NVpowerpc
p893
tp894
(dp895
Vhardware
p896
Vuniprocessor 32-bit PowerPC
p897
ss(Vimage
p898
g866
NVpowerpc64
p899
tp900
(dp901
Vconfigs
p902
(lp903
Vkernelarch-powerpc/config-arch-64
p904
aVkernelarch-powerpc/config-arch-64-be
p905
ass(Vdescription
p906
g866
NVpowerpc-smp
p907
tp908
(dp909
Vhardware
p910
Vmultiprocessor 32-bit PowerPC
p911
ss(Vimage
p912
g866
tp913
(dp914
Vsuggests
p915
Vmkvmlinuz
p916
sVinstall-stem
p917
Vvmlinux
p918
sVconfigs
p919
(lp920
ss(g194
g866
g162
tp921
(dp922
g197
(lp923
Vpowerpc
p924
aVpowerpc-smp
p925
aVpowerpc64
p926
asg201
I01
ss(Vbase
p927
Vpowerpcspe
p928
tp929
(dp930
g160
(lp931
g162
asVkernel-arch
p932
Vpowerpc
p933
ss(Vbuild
p934
g928
tp935
(dp936
Vsigned-modules
p937
I00
sVimage-file
p938
Vvmlinux
p939
sVvdso
p940
I01
ss(Vimage
p941
g928
tp942
(dp943
Vsuggests
p944
Vmkvmlinuz
p945
sVinstall-stem
p946
Vvmlinux
p947
ss(Vdescription
p948
g928
tp949
(dp950
Vhardware
p951
V32-bit PowerPC with SPE (instead of AltiVec) with SMP support
p952
ss(g194
g928
g162
tp953
(dp954
g197
(lp955
Vpowerpcspe
p956
asg201
I01
ss(Vbase
p957
Vppc64
p958
tp959
(dp960
g160
(lp961
g162
asVkernel-arch
p962
Vpowerpc
p963
ss(Vdescription
p964
g958
NVpowerpc64
p965
tp966
(dp967
Vhardware
p968
V64-bit PowerPC
p969
ss(Vbuild
p970
g958
tp971
(dp972
Vsigned-modules
p973
I00
sVimage-file
p974
Vvmlinux
p975
sVvdso
p976
I01
ss(Vimage
p977
g958
NVpowerpc64
p978
tp979
(dp980
Vconfigs
p981
(lp982
Vkernelarch-powerpc/config-arch-64
p983
aVkernelarch-powerpc/config-arch-64-be
p984
ass(Vimage
p985
g958
tp986
(dp987
Vsuggests
p988
Vmkvmlinuz
p989
sVinstall-stem
p990
Vvmlinux
p991
sVconfigs
p992
(lp993
ss(g194
g958
g162
tp994
(dp995
g197
(lp996
Vpowerpc64
p997
asg201
I01
ss(Vbase
p998
Vppc64el
p999
tp1000
(dp1001
g160
(lp1002
g162
asVkernel-arch
p1003
Vpowerpc
p1004
ss(Vdescription
p1005
g999
NVpowerpc64le
p1006
tp1007
(dp1008
Vhardware
p1009
VLittle-endian 64-bit PowerPC
p1010
ss(Vbuild
p1011
g999
tp1012
(dp1013
Vvdso
p1014
I01
sVimage-file
p1015
Vvmlinux
p1016
ss(Vimage
p1017
g999
tp1018
(dp1019
Vsuggests
p1020
Vmkvmlinuz
p1021
sVinstall-stem
p1022
Vvmlinux
p1023
sVconfigs
p1024
(lp1025
ss(Vimage
p1026
g999
NVpowerpc64le
p1027
tp1028
(dp1029
Vconfigs
p1030
(lp1031
Vkernelarch-powerpc/config-arch-64
p1032
aVkernelarch-powerpc/config-arch-64-le
p1033
ass(g194
g999
g162
tp1034
(dp1035
g197
(lp1036
Vpowerpc64le
p1037
asg201
I01
ss(Vbase
p1038
Vs390
p1039
tp1040
(dp1041
Vfeaturesets
p1042
(lp1043
sVkernel-arch
p1044
Vs390
p1045
ss(Vbase
p1046
Vs390x
p1047
tp1048
(dp1049
g160
(lp1050
g162
asVkernel-arch
p1051
Vs390
p1052
ss(Vdescription
p1053
g1047
NVs390x
p1054
tp1055
(dp1056
Vhardware
p1057
VIBM zSeries
p1058
ss(Vbuild
p1059
g1047
tp1060
(dp1061
Vvdso
p1062
I01
sVimage-file
p1063
Varch/s390/boot/image
p1064
ss(Vbuild
p1065
g1047
NVs390x
p1066
tp1067
(dp1068
Vdebug-info
p1069
I01
ss(Vrelations
p1070
g1047
tp1071
(dp1072
Vheaders%gcc-6
p1073
Vlinux-compiler-gcc-6-s390
p1074
ss(Vimage
p1075
g1047
tp1076
(dp1077
Vinstall-stem
p1078
Vvmlinuz
p1079
sVbootloaders
p1080
(lp1081
Vs390-tools
p1082
ass(g194
g1047
g162
tp1083
(dp1084
g197
(lp1085
Vs390x
p1086
asg201
I01
ss(Vbase
p1087
Vsh3
p1088
tp1089
(dp1090
Vfeaturesets
p1091
(lp1092
sVkernel-arch
p1093
Vsh
p1094
ss(Vbase
p1095
Vsh4
p1096
tp1097
(dp1098
g160
(lp1099
g162
asVkernel-arch
p1100
Vsh
p1101
ss(Vbuild
p1102
g1096
tp1103
(dp1104
Vsigned-modules
p1105
I00
sVimage-file
p1106
Varch/sh/boot/zImage
p1107
ss(Vdescription
p1108
g1096
NVsh7751r
p1109
tp1110
(dp1111
Vhardware
p1112
Vsh7751r
p1113
sVhardware-long
p1114
VRenesas SH7751R R2D plus board
p1115
ss(Vdescription
p1116
g1096
NVsh7785lcr
p1117
tp1118
(dp1119
Vhardware
p1120
Vsh7785lcr
p1121
sVhardware-long
p1122
VRenesas SH7785 reference board
p1123
ss(Vimage
p1124
g1096
tp1125
(dp1126
Vinstall-stem
p1127
Vvmlinuz
p1128
ss(Vimage
p1129
g1096
NVsh7785lcr
p1130
tp1131
(dp1132
Vrecommends
p1133
Vu-boot-tools
p1134
sVcheck-size
p1135
L4194304L
ss(g194
g1096
g162
tp1136
(dp1137
g197
(lp1138
Vsh7751r
p1139
aVsh7785lcr
p1140
asg201
I01
ss(Vbase
p1141
Vsparc
p1142
tp1143
(dp1144
Vfeaturesets
p1145
(lp1146
sVkernel-arch
p1147
Vsparc
p1148
ss(Vbase
p1149
Vsparc64
p1150
tp1151
(dp1152
g160
(lp1153
g162
asVkernel-arch
p1154
Vsparc
p1155
ss(Vbuild
p1156
g1150
tp1157
(dp1158
Vsigned-modules
p1159
I00
sVimage-file
p1160
Varch/sparc/boot/zImage
p1161
ss(Vimage
p1162
g1150
NVsparc64
p1163
tp1164
(dp1165
Vconfigs
p1166
(lp1167
Vkernelarch-sparc/config-up
p1168
ass(Vimage
p1169
g1150
NVsparc64-smp
p1170
tp1171
(dp1172
Vconfigs
p1173
(lp1174
Vkernelarch-sparc/config-smp
p1175
ass(Vimage
p1176
g1150
tp1177
(dp1178
Vsuggests
p1179
Vsilo, fdutils
p1180
sVinstall-stem
p1181
Vvmlinuz
p1182
sVconfigs
p1183
(lp1184
ss(Vdescription
p1185
g1150
NVsparc64-smp
p1186
tp1187
(dp1188
Vhardware
p1189
Vmultiprocessor 64-bit UltraSPARC
p1190
ss(Vdescription
p1191
g1150
NVsparc64
p1192
tp1193
(dp1194
Vhardware
p1195
Vuniprocessor 64-bit UltraSPARC
p1196
ss(g194
g1150
g162
tp1197
(dp1198
g197
(lp1199
Vsparc64
p1200
aVsparc64-smp
p1201
asg201
I01
ss(Vbase
p1202
Vtilegx
p1203
tp1204
(dp1205
Vfeaturesets
p1206
(lp1207
sVkernel-arch
p1208
Vtile
p1209
ss(Vbase
p1210
Vx32
p1211
tp1212
(dp1213
Vfeaturesets
p1214
(lp1215
sVkernel-arch
p1216
Vx86
p1217
ss(Vdescription
p1218
NVrt
p1219
tp1220
(dp1221
Vparts
p1222
(lp1223
Vrt
p1224
asVpart-long-rt
p1225
VThis kernel includes the PREEMPT_RT realtime patch set.
p1226
sVpart-short-rt
p1227
VPREEMPT_RT
p1228
ss(Vabi
p1229
Ng1219
tp1230
(dp1231
Vignore-changes
p1232
(lp1233
V*
p1234
ass(Vversion
p1235
tp1236
(dp1237
Vupstream
p1238
V4.9
p1239
sVsource
p1240
V4.9.144-3
p1241
sVabiname
p1242
V4.9.0-8
p1243
sVabiname_base
p1244
V4.9.0
p1245
ss.