cdebian_linux.config
ConfigCore
p0
(tRp1
(Vbase
p2
tp3
(dp4
Varches
p5
(lp6
Valpha
p7
aVamd64
p8
aVarm64
p9
aVarmel
p10
aVarmhf
p11
aVhppa
p12
aVi386
p13
aVm68k
p14
aVmips
p15
aVmipsel
p16
aVmipsn32
p17
aVmipsn32el
p18
aVmips64
p19
aVmips64el
p20
aVpowerpc
p21
aVpowerpcspe
p22
aVppc64
p23
aVppc64el
p24
aVs390
p25
aVs390x
p26
aVsh3
p27
aVsh4
p28
aVsparc
p29
aVsparc64
p30
aVtilegx
p31
aVx32
p32
asVfeaturesets
p33
(lp34
Vnone
p35
aVrt
p36
asVcompiler
p37
Vgcc-6
p38
ss(Vbuild
p39
tp40
(dp41
Vsigned-modules
p42
I00
sVdebug-info
p43
I01
ss(Vbase
p44
NVrt
p45
tp46
(dp47
Venabled
p48
I01
ss(Vdescription
p49
tp50
(dp51
Vpart-long-up
p52
VThis kernel is not suitable for SMP (multi-processor,\u000amulti-core or hyper-threaded) systems.
p53
sVpart-long-xen
p54
VThis kernel also runs on a Xen hypervisor.\u000aIt supports both privileged (dom0) and unprivileged (domU) operation.
p55
ss(Vrelations
p56
tp57
(dp58
Vinitramfs-tools
p59
Vinitramfs-tools (>= 0.120+deb8u2)
p60
sVgcc-6
p61
Vgcc-6 <!stage1 !cross>, gcc-6-@gnu-type-package@ <!stage1 cross>
p62
sVinitramfs-fallback
p63
Vlinux-initramfs-tool
p64
ss(Vimage
p65
tp66
(dp67
Vinitramfs-generators
p68
(lp69
Vinitramfs-tools
p70
aVinitramfs-fallback
p71
ass(Vabi
p72
tp73
(dp74
Vabiname
p75
V9
p76
sVignore-changes
p77
(lp78
V__cpuhp_*
p79
aVbpf_analyzer
p80
aVcpu_tlbstate
p81
aVcxl_*
p82
aVinet_frag_*
p83
aVinet_frags_*
p84
aVinjectm
p85
aVip6_expire_frag_queue
p86
aVip6_frag_*
p87
aVmce_*
p88
aVmm_iommu_*
p89
aVmv_mbus_*
p90
aVregister_cxl_calls
p91
aVregister_key_type
p92
aVtpm_*
p93
aVtpmm_chip_alloc
p94
aVunregister_cxl_calls
p95
aVmodule:drivers/block/loop
p96
aVmodule:drivers/crypto/ccp/*
p97
aVmodule:drivers/edac/edac_mce_amd
p98
aVmodule:drivers/hv/*
p99
aVmodule:drivers/iio/common/hid-sensors/*
p100
aVmodule:drivers/iio/common/st_sensors/**
p101
aVmodule:drivers/net/ethernet/**
p102
aVmodule:drivers/net/wireless/**
p103
aVmodule:drivers/nfc/**
p104
aVmodule:drivers/nvdimm/*
p105
aVmodule:drivers/nvme/**
p106
aVmodule:drivers/power/supply/bq27xxx_battery
p107
aVmodule:drivers/s390/net/qeth
p108
aVmodule:drivers/s390/net/qeth*
p109
aVmodule:drivers/scsi/cxgbi/*
p110
aVmodule:drivers/scsi/esp_scsi
p111
aVmodule:drivers/scsi/libiscs*
p112
aVmodule:drivers/scsi/qla2xxx/qla2xxx
p113
aVmodule:drivers/scsi/ufs/*
p114
aVmodule:drivers/target/**
p115
aVmodule:drivers/usb/chipidea/**
p116
aVmodule:drivers/usb/gadget/**
p117
aVmodule:drivers/usb/host/**
p118
aVmodule:drivers/usb/musb/**
p119
aVmodule:fs/nfs/nfs
p120
aVmodule:net/ceph/libceph
p121
aVmodule:net/nfc/hci/hci
p122
aVmodule:net/l2tp/**
p123
aVmodule:net/vmw_vsock/*
p124
aVmodule:sound/firewire/snd-firewire-lib
p125
aVmodule:sound/pci/hda/*
p126
aVbtree_*
p127
aVvisitor*
p128
aVcan_rx_register
p129
aVip6_xmit
p130
aVmodule:net/dccp/dccp
p131
aVmodule:net/rds/rds
p132
aVdevfreq_*
p133
aVdevm_devfreq_*
p134
aVupdate_devfreq
p135
aVmodule:drivers/infiniband/**
p136
aVacpi_ec_add_query_handler
p137
aVacpi_ec_remove_query_handler
p138
aVfirst_ec
p139
aVdebugfs_create_automount
p140
aV__gfn_*
p141
aV__kvm_*
p142
aVgfn_*
p143
aVkvm_*
p144
aVmark_page_dirty
p145
aVvcpu_*
p146
aVmodule:arch/powerpc/kvm/*
p147
aVmodule:arch/s390/kvm/*
p148
aVmodule:arch/x86/kvm/*
p149
aV*_xen_*
p150
aV*_xenballooned_*
p151
aV*_xenbus_*
p152
aV*_xenstore_*
p153
aVgnttab_*
p154
aVHYPERVISOR_*
p155
aVx86_hyper_xen
p156
aVxen_*
p157
aVxenbus_*
p158
aVreturn_address
p159
aVbr_netfilter_enable
p160
ass(Vbase
p161
Valpha
p162
tp163
(dp164
Vfeaturesets
p165
(lp166
Vnone
p167
asVkernel-arch
p168
Valpha
p169
ss(Vdescription
p170
g162
NValpha-smp
p171
tp172
(dp173
Vhardware
p174
VAlpha SMP
p175
sVhardware-long
p176
VDEC Alpha SMP systems with extended kernel start address (Wildfire, Titan, Marvel)
p177
ss(Vbuild
p178
g162
tp179
(dp180
Vsigned-modules
p181
I00
sVimage-file
p182
Varch/alpha/boot/vmlinux.gz
p183
ss(Vdescription
p184
g162
NValpha-generic
p185
tp186
(dp187
Vhardware
p188
VAlpha
p189
sVhardware-long
p190
VDEC Alpha systems with extended kernel start address (Wildfire, Titan, Marvel)
p191
ss(Vimage
p192
g162
tp193
(dp194
Vsuggests
p195
Vaboot, fdutils
p196
sVinstall-stem
p197
Vvmlinuz
p198
ss(Vbase
p199
g162
g167
tp200
(dp201
Vflavours
p202
(lp203
Valpha-generic
p204
aValpha-smp
p205
asVimplicit-flavour
p206
I01
ss(Vbase
p207
Vamd64
p208
tp209
(dp210
Vfeaturesets
p211
(lp212
Vnone
p213
aVrt
p214
asVkernel-arch
p215
Vx86
p216
ss(Vdescription
p217
g208
NVamd64
p218
tp219
(dp220
Vhardware
p221
V64-bit PCs
p222
sVhardware-long
p223
VPCs with AMD64, Intel 64 or VIA Nano processors
p224
ss(Vbuild
p225
g208
tp226
(dp227
Vvdso
p228
I01
sVimage-file
p229
Varch/x86/boot/bzImage
p230
sVdebug-info
p231
I01
ss(Vrelations
p232
g208
tp233
(dp234
Vheaders%gcc-6
p235
Vlinux-compiler-gcc-6-x86 (>= 4.9.82-1+deb9u1~)
p236
sVgcc-6
p237
Vgcc-6 (>= 6.3.0-18+deb9u1~) <!stage1 !cross>, gcc-6-@gnu-type-package@ (>= 6.3.0-18+deb9u1~) <!stage1 cross>
p238
ss(Vimage
p239
g208
tp240
(dp241
Vbreaks
p242
Vxserver-xorg-input-vmmouse (<< 1:13.0.99)
p243
sVinstall-stem
p244
Vvmlinuz
p245
sVbootloaders
p246
(lp247
Vgrub-pc
p248
aVgrub-efi-amd64
p249
aVextlinux
p250
ass(Vbase
p251
g208
Vnone
p252
tp253
(dp254
Vflavours
p255
(lp256
Vamd64
p257
ass(Vdescription
p258
g208
g252
Vamd64
p259
tp260
(dp261
Vparts
p262
(lp263
Vxen
p264
ass(Vbase
p265
g208
Vrt
p266
tp267
(dp268
Vflavours
p269
(lp270
Vamd64
p271
ass(Vbase
p272
Varm64
p273
tp274
(dp275
Vfeaturesets
p276
(lp277
Vnone
p278
asVkernel-arch
p279
Varm64
p280
ss(Vdescription
p281
g273
NVarm64
p282
tp283
(dp284
Vhardware
p285
V64-bit ARMv8 machines
p286
ss(Vbuild
p287
g273
tp288
(dp289
Vvdso
p290
I01
sVimage-file
p291
Varch/arm64/boot/Image
p292
sVdebug-info
p293
I01
ss(Vimage
p294
g273
NVarm64
p295
tp296
(dp297
s(Vimage
p298
g273
tp299
(dp300
Vbreaks
p301
Vlibmozjs185-1.0, libmozjs-24-0 (<< 24.2.0-5.1~)
p302
sVinstall-stem
p303
Vvmlinuz
p304
ss(Vbase
p305
g273
Vnone
p306
tp307
(dp308
Vflavours
p309
(lp310
Varm64
p311
ass(Vbase
p312
Varmel
p313
tp314
(dp315
g165
(lp316
g167
asVkernel-arch
p317
Varm
p318
ss(Vbuild
p319
g313
tp320
(dp321
Vsigned-modules
p322
I00
sVimage-file
p323
Varch/arm/boot/zImage
p324
ss(Vimage
p325
g313
NVmarvell
p326
tp327
(dp328
Vrecommends
p329
Vu-boot-tools
p330
sVbreaks
p331
Vflash-kernel (<< 3.57~)
p332
sVcheck-size-with-dtb
p333
I01
sVcheck-size
p334
L2097080L
ss(Vdescription
p335
g313
NVmarvell
p336
tp337
(dp338
Vhardware
p339
VMarvell Kirkwood/Orion
p340
sVhardware-long
p341
VMarvell Kirkwood based systems (SheevaPlug, QNAP TS-119/TS-219, etc)\u000aand Orion 5181, 5182 and 5281 based systems (QNAP TS-109/TS-209, etc)
p342
ss(Vrelations
p343
g313
tp344
(dp345
Vheaders%gcc-6
p346
Vlinux-compiler-gcc-6-arm
p347
ss(Vimage
p348
g313
tp349
(dp350
Vinstall-stem
p351
Vvmlinuz
p352
ss(g199
g313
g167
tp353
(dp354
g202
(lp355
Vmarvell
p356
asg206
I01
ss(Vbase
p357
Varmhf
p358
tp359
(dp360
g165
(lp361
g167
asVkernel-arch
p362
Varm
p363
ss(Vdescription
p364
g358
NVarmmp
p365
tp366
(dp367
Vhardware
p368
VARMv7 multiplatform compatible SoCs
p369
sVhardware-long
p370
VARMv7 multiplatform kernel. See\u000ahttps://wiki.debian.org/DebianKernel/ARMMP for details of supported\u000aplatforms
p371
ss(Vbuild
p372
g358
tp373
(dp374
Vvdso
p375
I01
sVimage-file
p376
Varch/arm/boot/zImage
p377
ss(Vdescription
p378
g358
NVarmmp-lpae
p379
tp380
(dp381
Vhardware
p382
VARMv7 multiplatform compatible SoCs supporting LPAE
p383
sVhardware-long
p384
VARMv7 multiplatform kernel supporting LPAE. See\u000ahttps://wiki.debian.org/DebianKernel/ARMMP for details of supported\u000aplatforms.
p385
ss(Vrelations
p386
g358
tp387
(dp388
Vheaders%gcc-6
p389
Vlinux-compiler-gcc-6-arm
p390
ss(Vimage
p391
g358
tp392
(dp393
Vinstall-stem
p394
Vvmlinuz
p395
ss(g199
g358
g167
tp396
(dp397
g202
(lp398
Varmmp
p399
aVarmmp-lpae
p400
asg206
I01
ss(Vbase
p401
Vhppa
p402
tp403
(dp404
g165
(lp405
g167
asVkernel-arch
p406
Vparisc
p407
ss(Vbuild
p408
g402
tp409
(dp410
Vsigned-modules
p411
I00
sVimage-file
p412
Vvmlinux
p413
ss(Vdescription
p414
g402
NVparisc64-smp
p415
tp416
(dp417
Vhardware
p418
Vmultiprocessor 64-bit PA-RISC
p419
sVhardware-long
p420
VHP PA-RISC 64-bit SMP systems with support for more than 4 GB RAM
p421
ss(Vbase
p422
g402
NVparisc64-smp
p423
tp424
(dp425
Vcflags
p426
V-fno-cse-follow-jumps
p427
sVoverride-host-type
p428
Vhppa64-linux-gnu
p429
ss(Vrelations
p430
g402
tp431
(dp432
Vgcc-6
p433
Vgcc-6 <!stage1 !cross>, binutils-hppa64-linux-gnu <!stage1 !cross>, gcc-6-hppa64-linux-gnu <!stage1 !cross>, gcc-6-hppa-linux-gnu <!stage1 cross>, binutils-hppa64-linux-gnu <!stage1 cross>, gcc-6-hppa64-linux-gnu <!stage1 cross>
p434
ss(Vdescription
p435
g402
NVparisc
p436
tp437
(dp438
Vhardware
p439
V32-bit PA-RISC
p440
sVhardware-long
p441
VHP PA-RISC 32-bit systems with max 4 GB RAM
p442
ss(Vimage
p443
g402
tp444
(dp445
Vsuggests
p446
Vpalo
p447
sVinstall-stem
p448
Vvmlinux
p449
ss(g199
g402
g167
tp450
(dp451
g202
(lp452
Vparisc
p453
aVparisc64-smp
p454
asg206
I01
ss(Vbase
p455
Vi386
p456
tp457
(dp458
Vfeaturesets
p459
(lp460
Vnone
p461
aVrt
p462
asVkernel-arch
p463
Vx86
p464
ss(Vbuild
p465
g456
tp466
(dp467
Vvdso
p468
I01
sVimage-file
p469
Varch/x86/boot/bzImage
p470
ss(Vdescription
p471
g456
NV686-pae
p472
tp473
(dp474
Vhardware
p475
Vmodern PCs
p476
sVhardware-long
p477
VPCs with one or more processors supporting PAE
p478
sVparts
p479
(lp480
Vpae
p481
ass(Vdescription
p482
g456
tp483
(dp484
Vpart-long-pae
p485
VThis kernel requires PAE (Physical Address Extension).\u000aThis feature is supported by the Intel Pentium Pro/II/III/4/4M/D, Xeon,\u000aCore and Atom; AMD Geode NX, Athlon (K7), Duron, Opteron, Sempron,\u000aTurion or Phenom; Transmeta Efficeon; VIA C7; and some other processors.
p486
ss(Vbuild
p487
g456
NV686-pae
p488
tp489
(dp490
Vdebug-info
p491
I01
ss(Vdescription
p492
g456
NV686
p493
tp494
(dp495
Vhardware
p496
Volder PCs
p497
sVhardware-long
p498
VPCs with one or more processors not supporting PAE
p499
ss(Vrelations
p500
g456
tp501
(dp502
Vheaders%gcc-6
p503
Vlinux-compiler-gcc-6-x86 (>= 4.9.82-1+deb9u1~)
p504
sVgcc-6
p505
Vgcc-6 (>= 6.3.0-18+deb9u1~) <!stage1 !cross>, gcc-6-@gnu-type-package@ (>= 6.3.0-18+deb9u1~) <!stage1 cross>
p506
ss(Vimage
p507
g456
tp508
(dp509
Vbreaks
p510
Vxserver-xorg-input-vmmouse (<< 1:13.0.99)
p511
sVinstall-stem
p512
Vvmlinuz
p513
sVbootloaders
p514
(lp515
Vgrub-pc
p516
aVextlinux
p517
ass(Vbase
p518
g456
Vnone
p519
tp520
(dp521
Vflavours
p522
(lp523
V686
p524
aV686-pae
p525
ass(Vdescription
p526
g456
g519
V686-pae
p527
tp528
(dp529
Vparts
p530
(lp531
Vxen
p532
ass(Vbase
p533
g456
Vrt
p534
tp535
(dp536
Vflavours
p537
(lp538
V686-pae
p539
ass(Vbase
p540
Vm68k
p541
tp542
(dp543
Vcflags
p544
V-ffreestanding
p545
sg165
(lp546
g167
asVkernel-arch
p547
Vm68k
p548
ss(Vbuild
p549
g541
tp550
(dp551
Vsigned-modules
p552
I00
sVimage-file
p553
Vvmlinux.gz
p554
ss(Vdescription
p555
g541
NVm68k
p556
tp557
(dp558
Vhardware
p559
VMotorola MC68020+ family
p560
ss(Vimage
p561
g541
tp562
(dp563
Vsuggests
p564
Vvmelilo, fdutils
p565
sVinstall-stem
p566
Vvmlinuz
p567
ss(g199
g541
g167
tp568
(dp569
g202
(lp570
Vm68k
p571
asg206
I01
ss(Vbase
p572
Vmips
p573
tp574
(dp575
g165
(lp576
g167
asVkernel-arch
p577
Vmips
p578
ss(Vbuild
p579
g573
tp580
(dp581
Vsigned-modules
p582
I00
sVimage-file
p583
Vvmlinux
p584
ss(Vimage
p585
g573
NV4kc-malta
p586
tp587
(dp588
Vconfigs
p589
(lp590
Vkernelarch-mips/config.malta
p591
aVkernelarch-mips/config.mips32r2
p592
ass(Vimage
p593
g573
NV5kc-malta
p594
tp595
(dp596
Vconfigs
p597
(lp598
Vkernelarch-mips/config.malta
p599
aVkernelarch-mips/config.mips64r2
p600
ass(Vdescription
p601
g573
NVocteon
p602
tp603
(dp604
Vhardware
p605
VOcteon
p606
sVhardware-long
p607
VCavium Networks Octeon
p608
ss(Vimage
p609
g573
NVocteon
p610
tp611
(dp612
Vconfigs
p613
(lp614
Vkernelarch-mips/config.octeon
p615
ass(Vimage
p616
g573
tp617
(dp618
Vinstall-stem
p619
Vvmlinux
p620
ss(Vdescription
p621
g573
NV5kc-malta
p622
tp623
(dp624
Vhardware
p625
VMIPS Malta (64-bit)
p626
sVhardware-long
p627
VMIPS Malta boards (64-bit)
p628
ss(Vdescription
p629
g573
NV4kc-malta
p630
tp631
(dp632
Vhardware
p633
VMIPS Malta
p634
sVhardware-long
p635
VMIPS Malta boards
p636
ss(g199
g573
g167
tp637
(dp638
g202
(lp639
V4kc-malta
p640
aV5kc-malta
p641
aVocteon
p642
asg206
I01
ss(Vbase
p643
Vmipsel
p644
tp645
(dp646
g165
(lp647
g167
asVkernel-arch
p648
Vmips
p649
ss(Vimage
p650
g644
NVloongson-3
p651
tp652
(dp653
Vconfigs
p654
(lp655
Vkernelarch-mips/config.loongson-3
p656
ass(Vbuild
p657
g644
tp658
(dp659
Vsigned-modules
p660
I00
sVimage-file
p661
Vvmlinux
p662
ss(Vimage
p663
g644
NV4kc-malta
p664
tp665
(dp666
Vconfigs
p667
(lp668
Vkernelarch-mips/config.malta
p669
aVkernelarch-mips/config.mips32r2
p670
ass(Vimage
p671
g644
NV5kc-malta
p672
tp673
(dp674
Vconfigs
p675
(lp676
Vkernelarch-mips/config.malta
p677
aVkernelarch-mips/config.mips64r2
p678
ass(Vdescription
p679
g644
NVocteon
p680
tp681
(dp682
Vhardware
p683
VOcteon
p684
sVhardware-long
p685
VCavium Networks Octeon
p686
ss(Vdescription
p687
g644
NVloongson-3
p688
tp689
(dp690
Vhardware
p691
VLoongson 3A/3B
p692
sVhardware-long
p693
VLoongson 3A or 3B based systems (e.g. from Loongson or Lemote)
p694
ss(Vimage
p695
g644
NVocteon
p696
tp697
(dp698
Vconfigs
p699
(lp700
Vkernelarch-mips/config.octeon
p701
ass(Vimage
p702
g644
tp703
(dp704
Vinstall-stem
p705
Vvmlinux
p706
ss(Vdescription
p707
g644
NV5kc-malta
p708
tp709
(dp710
Vhardware
p711
VMIPS Malta (64-bit)
p712
sVhardware-long
p713
VMIPS Malta boards (64-bit)
p714
ss(Vdescription
p715
g644
NV4kc-malta
p716
tp717
(dp718
Vhardware
p719
VMIPS Malta
p720
sVhardware-long
p721
VMIPS Malta boards
p722
ss(g199
g644
g167
tp723
(dp724
g202
(lp725
V4kc-malta
p726
aV5kc-malta
p727
aVloongson-3
p728
aVocteon
p729
asg206
I01
ss(Vbase
p730
Vmipsn32
p731
tp732
(dp733
Vfeaturesets
p734
(lp735
sVkernel-arch
p736
Vmips
p737
ss(Vbase
p738
Vmipsn32el
p739
tp740
(dp741
Vfeaturesets
p742
(lp743
sVkernel-arch
p744
Vmips
p745
ss(Vbase
p746
Vmips64
p747
tp748
(dp749
g165
(lp750
g167
asVkernel-arch
p751
Vmips
p752
ss(Vbuild
p753
g747
tp754
(dp755
Vsigned-modules
p756
I00
sVimage-file
p757
Vvmlinux
p758
ss(Vimage
p759
g747
NV5kc-malta
p760
tp761
(dp762
Vconfigs
p763
(lp764
Vkernelarch-mips/config.malta
p765
aVkernelarch-mips/config.mips64r2
p766
ass(Vdescription
p767
g747
NVocteon
p768
tp769
(dp770
Vhardware
p771
VOcteon
p772
sVhardware-long
p773
VCavium Networks Octeon
p774
ss(Vimage
p775
g747
tp776
(dp777
Vinstall-stem
p778
Vvmlinux
p779
ss(Vdescription
p780
g747
NV5kc-malta
p781
tp782
(dp783
Vhardware
p784
VMIPS Malta
p785
sVhardware-long
p786
VMIPS Malta boards
p787
ss(Vimage
p788
g747
NVocteon
p789
tp790
(dp791
Vconfigs
p792
(lp793
Vkernelarch-mips/config.octeon
p794
ass(g199
g747
g167
tp795
(dp796
g202
(lp797
V5kc-malta
p798
aVocteon
p799
asg206
I01
ss(Vbase
p800
Vmips64el
p801
tp802
(dp803
g165
(lp804
g167
asVkernel-arch
p805
Vmips
p806
ss(Vimage
p807
g801
NVloongson-3
p808
tp809
(dp810
Vconfigs
p811
(lp812
Vkernelarch-mips/config.loongson-3
p813
ass(Vbuild
p814
g801
tp815
(dp816
Vsigned-modules
p817
I00
sVimage-file
p818
Vvmlinux
p819
ss(Vimage
p820
g801
NV5kc-malta
p821
tp822
(dp823
Vconfigs
p824
(lp825
Vkernelarch-mips/config.malta
p826
aVkernelarch-mips/config.mips64r2
p827
ass(Vdescription
p828
g801
NVocteon
p829
tp830
(dp831
Vhardware
p832
VOcteon
p833
sVhardware-long
p834
VCavium Networks Octeon
p835
ss(Vdescription
p836
g801
NVloongson-3
p837
tp838
(dp839
Vhardware
p840
VLoongson 3A/3B
p841
sVhardware-long
p842
VLoongson 3A or 3B based systems (e.g. from Loongson or Lemote)
p843
ss(Vimage
p844
g801
tp845
(dp846
Vinstall-stem
p847
Vvmlinux
p848
ss(Vdescription
p849
g801
NV5kc-malta
p850
tp851
(dp852
Vhardware
p853
VMIPS Malta
p854
sVhardware-long
p855
VMIPS Malta boards
p856
ss(Vimage
p857
g801
NVocteon
p858
tp859
(dp860
Vconfigs
p861
(lp862
Vkernelarch-mips/config.octeon
p863
ass(g199
g801
g167
tp864
(dp865
g202
(lp866
V5kc-malta
p867
aVloongson-3
p868
aVocteon
p869
asg206
I01
ss(Vbase
p870
Vpowerpc
p871
tp872
(dp873
g165
(lp874
g167
asVkernel-arch
p875
Vpowerpc
p876
ss(Vdescription
p877
g871
NVpowerpc64
p878
tp879
(dp880
Vhardware
p881
V64-bit PowerPC
p882
ss(Vbuild
p883
g871
tp884
(dp885
Vvdso
p886
I01
sVimage-file
p887
Vvmlinux
p888
ss(Vimage
p889
g871
NVpowerpc-smp
p890
tp891
(dp892
Vconfigs
p893
(lp894
Vpowerpc/config.powerpc
p895
aVpowerpc/config.powerpc-smp
p896
ass(Vdescription
p897
g871
NVpowerpc
p898
tp899
(dp900
Vhardware
p901
Vuniprocessor 32-bit PowerPC
p902
ss(Vimage
p903
g871
NVpowerpc64
p904
tp905
(dp906
Vconfigs
p907
(lp908
Vkernelarch-powerpc/config-arch-64
p909
aVkernelarch-powerpc/config-arch-64-be
p910
ass(Vdescription
p911
g871
NVpowerpc-smp
p912
tp913
(dp914
Vhardware
p915
Vmultiprocessor 32-bit PowerPC
p916
ss(Vimage
p917
g871
tp918
(dp919
Vsuggests
p920
Vmkvmlinuz
p921
sVinstall-stem
p922
Vvmlinux
p923
sVconfigs
p924
(lp925
ss(g199
g871
g167
tp926
(dp927
g202
(lp928
Vpowerpc
p929
aVpowerpc-smp
p930
aVpowerpc64
p931
asg206
I01
ss(Vbase
p932
Vpowerpcspe
p933
tp934
(dp935
g165
(lp936
g167
asVkernel-arch
p937
Vpowerpc
p938
ss(Vbuild
p939
g933
tp940
(dp941
Vsigned-modules
p942
I00
sVimage-file
p943
Vvmlinux
p944
sVvdso
p945
I01
ss(Vimage
p946
g933
tp947
(dp948
Vsuggests
p949
Vmkvmlinuz
p950
sVinstall-stem
p951
Vvmlinux
p952
ss(Vdescription
p953
g933
tp954
(dp955
Vhardware
p956
V32-bit PowerPC with SPE (instead of AltiVec) with SMP support
p957
ss(g199
g933
g167
tp958
(dp959
g202
(lp960
Vpowerpcspe
p961
asg206
I01
ss(Vbase
p962
Vppc64
p963
tp964
(dp965
g165
(lp966
g167
asVkernel-arch
p967
Vpowerpc
p968
ss(Vdescription
p969
g963
NVpowerpc64
p970
tp971
(dp972
Vhardware
p973
V64-bit PowerPC
p974
ss(Vbuild
p975
g963
tp976
(dp977
Vsigned-modules
p978
I00
sVimage-file
p979
Vvmlinux
p980
sVvdso
p981
I01
ss(Vimage
p982
g963
NVpowerpc64
p983
tp984
(dp985
Vconfigs
p986
(lp987
Vkernelarch-powerpc/config-arch-64
p988
aVkernelarch-powerpc/config-arch-64-be
p989
ass(Vimage
p990
g963
tp991
(dp992
Vsuggests
p993
Vmkvmlinuz
p994
sVinstall-stem
p995
Vvmlinux
p996
sVconfigs
p997
(lp998
ss(g199
g963
g167
tp999
(dp1000
g202
(lp1001
Vpowerpc64
p1002
asg206
I01
ss(Vbase
p1003
Vppc64el
p1004
tp1005
(dp1006
g165
(lp1007
g167
asVkernel-arch
p1008
Vpowerpc
p1009
ss(Vdescription
p1010
g1004
NVpowerpc64le
p1011
tp1012
(dp1013
Vhardware
p1014
VLittle-endian 64-bit PowerPC
p1015
ss(Vbuild
p1016
g1004
tp1017
(dp1018
Vvdso
p1019
I01
sVimage-file
p1020
Vvmlinux
p1021
ss(Vimage
p1022
g1004
tp1023
(dp1024
Vsuggests
p1025
Vmkvmlinuz
p1026
sVinstall-stem
p1027
Vvmlinux
p1028
sVconfigs
p1029
(lp1030
ss(Vimage
p1031
g1004
NVpowerpc64le
p1032
tp1033
(dp1034
Vconfigs
p1035
(lp1036
Vkernelarch-powerpc/config-arch-64
p1037
aVkernelarch-powerpc/config-arch-64-le
p1038
ass(g199
g1004
g167
tp1039
(dp1040
g202
(lp1041
Vpowerpc64le
p1042
asg206
I01
ss(Vbase
p1043
Vs390
p1044
tp1045
(dp1046
Vfeaturesets
p1047
(lp1048
sVkernel-arch
p1049
Vs390
p1050
ss(Vbase
p1051
Vs390x
p1052
tp1053
(dp1054
g165
(lp1055
g167
asVkernel-arch
p1056
Vs390
p1057
ss(Vdescription
p1058
g1052
NVs390x
p1059
tp1060
(dp1061
Vhardware
p1062
VIBM zSeries
p1063
ss(Vbuild
p1064
g1052
tp1065
(dp1066
Vvdso
p1067
I01
sVimage-file
p1068
Varch/s390/boot/image
p1069
ss(Vbuild
p1070
g1052
NVs390x
p1071
tp1072
(dp1073
Vdebug-info
p1074
I01
ss(Vrelations
p1075
g1052
tp1076
(dp1077
Vheaders%gcc-6
p1078
Vlinux-compiler-gcc-6-s390
p1079
ss(Vimage
p1080
g1052
tp1081
(dp1082
Vinstall-stem
p1083
Vvmlinuz
p1084
sVbootloaders
p1085
(lp1086
Vs390-tools
p1087
ass(g199
g1052
g167
tp1088
(dp1089
g202
(lp1090
Vs390x
p1091
asg206
I01
ss(Vbase
p1092
Vsh3
p1093
tp1094
(dp1095
Vfeaturesets
p1096
(lp1097
sVkernel-arch
p1098
Vsh
p1099
ss(Vbase
p1100
Vsh4
p1101
tp1102
(dp1103
g165
(lp1104
g167
asVkernel-arch
p1105
Vsh
p1106
ss(Vbuild
p1107
g1101
tp1108
(dp1109
Vsigned-modules
p1110
I00
sVimage-file
p1111
Varch/sh/boot/zImage
p1112
ss(Vdescription
p1113
g1101
NVsh7751r
p1114
tp1115
(dp1116
Vhardware
p1117
Vsh7751r
p1118
sVhardware-long
p1119
VRenesas SH7751R R2D plus board
p1120
ss(Vdescription
p1121
g1101
NVsh7785lcr
p1122
tp1123
(dp1124
Vhardware
p1125
Vsh7785lcr
p1126
sVhardware-long
p1127
VRenesas SH7785 reference board
p1128
ss(Vimage
p1129
g1101
tp1130
(dp1131
Vinstall-stem
p1132
Vvmlinuz
p1133
ss(Vimage
p1134
g1101
NVsh7785lcr
p1135
tp1136
(dp1137
Vrecommends
p1138
Vu-boot-tools
p1139
sVcheck-size
p1140
L4194304L
ss(g199
g1101
g167
tp1141
(dp1142
g202
(lp1143
Vsh7751r
p1144
aVsh7785lcr
p1145
asg206
I01
ss(Vbase
p1146
Vsparc
p1147
tp1148
(dp1149
Vfeaturesets
p1150
(lp1151
sVkernel-arch
p1152
Vsparc
p1153
ss(Vbase
p1154
Vsparc64
p1155
tp1156
(dp1157
g165
(lp1158
g167
asVkernel-arch
p1159
Vsparc
p1160
ss(Vbuild
p1161
g1155
tp1162
(dp1163
Vsigned-modules
p1164
I00
sVimage-file
p1165
Varch/sparc/boot/zImage
p1166
ss(Vimage
p1167
g1155
NVsparc64
p1168
tp1169
(dp1170
Vconfigs
p1171
(lp1172
Vkernelarch-sparc/config-up
p1173
ass(Vimage
p1174
g1155
NVsparc64-smp
p1175
tp1176
(dp1177
Vconfigs
p1178
(lp1179
Vkernelarch-sparc/config-smp
p1180
ass(Vimage
p1181
g1155
tp1182
(dp1183
Vsuggests
p1184
Vsilo, fdutils
p1185
sVinstall-stem
p1186
Vvmlinuz
p1187
sVconfigs
p1188
(lp1189
ss(Vdescription
p1190
g1155
NVsparc64-smp
p1191
tp1192
(dp1193
Vhardware
p1194
Vmultiprocessor 64-bit UltraSPARC
p1195
ss(Vdescription
p1196
g1155
NVsparc64
p1197
tp1198
(dp1199
Vhardware
p1200
Vuniprocessor 64-bit UltraSPARC
p1201
ss(g199
g1155
g167
tp1202
(dp1203
g202
(lp1204
Vsparc64
p1205
aVsparc64-smp
p1206
asg206
I01
ss(Vbase
p1207
Vtilegx
p1208
tp1209
(dp1210
Vfeaturesets
p1211
(lp1212
sVkernel-arch
p1213
Vtile
p1214
ss(Vbase
p1215
Vx32
p1216
tp1217
(dp1218
Vfeaturesets
p1219
(lp1220
sVkernel-arch
p1221
Vx86
p1222
ss(Vdescription
p1223
NVrt
p1224
tp1225
(dp1226
Vparts
p1227
(lp1228
Vrt
p1229
asVpart-long-rt
p1230
VThis kernel includes the PREEMPT_RT realtime patch set.
p1231
sVpart-short-rt
p1232
VPREEMPT_RT
p1233
ss(Vabi
p1234
Ng1224
tp1235
(dp1236
Vignore-changes
p1237
(lp1238
V*
p1239
ass(Vversion
p1240
tp1241
(dp1242
Vupstream
p1243
V4.9
p1244
sVsource
p1245
V4.9.168-1+deb9u3
p1246
sVabiname
p1247
V4.9.0-9
p1248
sVabiname_base
p1249
V4.9.0
p1250
ss.