cdebian_linux.config
ConfigCore
p0
(tRp1
(Vabi
p2
tp3
(dp4
Vabiname
p5
V9
p6
sVignore-changes
p7
(lp8
V__cpuhp_*
p9
aVbpf_analyzer
p10
aVcpu_tlbstate
p11
aVcxl_*
p12
aVinet_frag_*
p13
aVinet_frags_*
p14
aVinjectm
p15
aVip6_expire_frag_queue
p16
aVip6_frag_*
p17
aVmce_*
p18
aVmm_iommu_*
p19
aVmv_mbus_*
p20
aVregister_cxl_calls
p21
aVregister_key_type
p22
aVtpm_*
p23
aVtpmm_chip_alloc
p24
aVunregister_cxl_calls
p25
aVmodule:drivers/block/loop
p26
aVmodule:drivers/crypto/ccp/*
p27
aVmodule:drivers/edac/edac_mce_amd
p28
aVmodule:drivers/hv/*
p29
aVmodule:drivers/iio/common/hid-sensors/*
p30
aVmodule:drivers/iio/common/st_sensors/**
p31
aVmodule:drivers/net/ethernet/**
p32
aVmodule:drivers/net/wireless/**
p33
aVmodule:drivers/nfc/**
p34
aVmodule:drivers/nvdimm/*
p35
aVmodule:drivers/nvme/**
p36
aVmodule:drivers/power/supply/bq27xxx_battery
p37
aVmodule:drivers/s390/net/qeth
p38
aVmodule:drivers/s390/net/qeth*
p39
aVmodule:drivers/scsi/cxgbi/*
p40
aVmodule:drivers/scsi/esp_scsi
p41
aVmodule:drivers/scsi/libiscs*
p42
aVmodule:drivers/scsi/qla2xxx/qla2xxx
p43
aVmodule:drivers/scsi/ufs/*
p44
aVmodule:drivers/target/**
p45
aVmodule:drivers/usb/chipidea/**
p46
aVmodule:drivers/usb/gadget/**
p47
aVmodule:drivers/usb/host/**
p48
aVmodule:drivers/usb/musb/**
p49
aVmodule:fs/nfs/nfs
p50
aVmodule:net/ceph/libceph
p51
aVmodule:net/nfc/hci/hci
p52
aVmodule:net/l2tp/**
p53
aVmodule:net/vmw_vsock/*
p54
aVmodule:sound/firewire/snd-firewire-lib
p55
aVmodule:sound/pci/hda/*
p56
aVbtree_*
p57
aVvisitor*
p58
aVcan_rx_register
p59
aVip6_xmit
p60
aVmodule:net/dccp/dccp
p61
aVmodule:net/rds/rds
p62
aVdevfreq_*
p63
aVdevm_devfreq_*
p64
aVupdate_devfreq
p65
aVmodule:drivers/infiniband/**
p66
aVacpi_ec_add_query_handler
p67
aVacpi_ec_remove_query_handler
p68
aVfirst_ec
p69
aVdebugfs_create_automount
p70
aV__gfn_*
p71
aV__kvm_*
p72
aVgfn_*
p73
aVkvm_*
p74
aVmark_page_dirty
p75
aVvcpu_*
p76
aVmodule:arch/powerpc/kvm/*
p77
aVmodule:arch/s390/kvm/*
p78
aVmodule:arch/x86/kvm/*
p79
aV*_xen_*
p80
aV*_xenballooned_*
p81
aV*_xenbus_*
p82
aV*_xenstore_*
p83
aVgnttab_*
p84
aVHYPERVISOR_*
p85
aVx86_hyper_xen
p86
aVxen_*
p87
aVxenbus_*
p88
aVreturn_address
p89
aVbr_netfilter_enable
p90
ass(Vbase
p91
tp92
(dp93
Varches
p94
(lp95
Valpha
p96
aVamd64
p97
aVarm64
p98
aVarmel
p99
aVarmhf
p100
aVhppa
p101
aVi386
p102
aVm68k
p103
aVmips
p104
aVmipsel
p105
aVmipsn32
p106
aVmipsn32el
p107
aVmips64
p108
aVmips64el
p109
aVpowerpc
p110
aVpowerpcspe
p111
aVppc64
p112
aVppc64el
p113
aVs390
p114
aVs390x
p115
aVsh3
p116
aVsh4
p117
aVsparc
p118
aVsparc64
p119
aVtilegx
p120
aVx32
p121
asVcompiler
p122
Vgcc-6
p123
sVfeaturesets
p124
(lp125
Vnone
p126
aVrt
p127
ass(Vbuild
p128
tp129
(dp130
Vdebug-info
p131
I01
sVsigned-modules
p132
I00
ss(Vbase
p133
NVrt
p134
tp135
(dp136
Venabled
p137
I01
ss(Vdescription
p138
tp139
(dp140
Vpart-long-up
p141
VThis kernel is not suitable for SMP (multi-processor,\u000amulti-core or hyper-threaded) systems.
p142
sVpart-long-xen
p143
VThis kernel also runs on a Xen hypervisor.\u000aIt supports both privileged (dom0) and unprivileged (domU) operation.
p144
ss(Vimage
p145
tp146
(dp147
Vinitramfs-generators
p148
(lp149
Vinitramfs-tools
p150
aVinitramfs-fallback
p151
ass(Vrelations
p152
tp153
(dp154
Vgcc-6
p155
Vgcc-6 <!stage1 !cross>, gcc-6-@gnu-type-package@ <!stage1 cross>
p156
sVinitramfs-fallback
p157
Vlinux-initramfs-tool
p158
sVinitramfs-tools
p159
Vinitramfs-tools (>= 0.120+deb8u2)
p160
ss(Vbase
p161
Valpha
p162
tp163
(dp164
Vkernel-arch
p165
Valpha
p166
sVfeaturesets
p167
(lp168
Vnone
p169
ass(Vbuild
p170
g162
tp171
(dp172
Vimage-file
p173
Varch/alpha/boot/vmlinux.gz
p174
sVsigned-modules
p175
I00
ss(Vimage
p176
g162
tp177
(dp178
Vsuggests
p179
Vaboot, fdutils
p180
sVinstall-stem
p181
Vvmlinuz
p182
ss(Vdescription
p183
g162
NValpha-generic
p184
tp185
(dp186
Vhardware
p187
VAlpha
p188
sVhardware-long
p189
VDEC Alpha systems with extended kernel start address (Wildfire, Titan, Marvel)
p190
ss(Vdescription
p191
g162
NValpha-smp
p192
tp193
(dp194
Vhardware
p195
VAlpha SMP
p196
sVhardware-long
p197
VDEC Alpha SMP systems with extended kernel start address (Wildfire, Titan, Marvel)
p198
ss(Vbase
p199
g162
g169
tp200
(dp201
Vflavours
p202
(lp203
Valpha-generic
p204
aValpha-smp
p205
asVimplicit-flavour
p206
I01
ss(Vbase
p207
Vamd64
p208
tp209
(dp210
Vfeaturesets
p211
(lp212
Vnone
p213
aVrt
p214
asVkernel-arch
p215
Vx86
p216
ss(Vbuild
p217
g208
tp218
(dp219
Vdebug-info
p220
I01
sVimage-file
p221
Varch/x86/boot/bzImage
p222
sVvdso
p223
I01
ss(Vimage
p224
g208
tp225
(dp226
Vbootloaders
p227
(lp228
Vgrub-pc
p229
aVgrub-efi-amd64
p230
aVextlinux
p231
asVinstall-stem
p232
Vvmlinuz
p233
sVbreaks
p234
Vxserver-xorg-input-vmmouse (<< 1:13.0.99)
p235
ss(Vrelations
p236
g208
tp237
(dp238
Vgcc-6
p239
Vgcc-6 (>= 6.3.0-18+deb9u1~) <!stage1 !cross>, gcc-6-@gnu-type-package@ (>= 6.3.0-18+deb9u1~) <!stage1 cross>
p240
sVheaders%gcc-6
p241
Vlinux-compiler-gcc-6-x86 (>= 4.9.82-1+deb9u1~)
p242
ss(Vdescription
p243
g208
NVamd64
p244
tp245
(dp246
Vhardware
p247
V64-bit PCs
p248
sVhardware-long
p249
VPCs with AMD64, Intel 64 or VIA Nano processors
p250
ss(Vbase
p251
g208
Vnone
p252
tp253
(dp254
Vflavours
p255
(lp256
Vamd64
p257
ass(Vdescription
p258
g208
g252
Vamd64
p259
tp260
(dp261
Vparts
p262
(lp263
Vxen
p264
ass(Vbase
p265
g208
Vrt
p266
tp267
(dp268
Vflavours
p269
(lp270
Vamd64
p271
ass(Vbase
p272
Varm64
p273
tp274
(dp275
Vkernel-arch
p276
Varm64
p277
sVfeaturesets
p278
(lp279
Vnone
p280
ass(Vbuild
p281
g273
tp282
(dp283
Vdebug-info
p284
I01
sVimage-file
p285
Varch/arm64/boot/Image
p286
sVvdso
p287
I01
ss(Vimage
p288
g273
tp289
(dp290
Vinstall-stem
p291
Vvmlinuz
p292
sVbreaks
p293
Vlibmozjs185-1.0, libmozjs-24-0 (<< 24.2.0-5.1~)
p294
ss(Vdescription
p295
g273
NVarm64
p296
tp297
(dp298
Vhardware
p299
V64-bit ARMv8 machines
p300
ss(Vimage
p301
g273
NVarm64
p302
tp303
(dp304
s(Vbase
p305
g273
Vnone
p306
tp307
(dp308
Vflavours
p309
(lp310
Varm64
p311
ass(Vbase
p312
Varmel
p313
tp314
(dp315
Vkernel-arch
p316
Varm
p317
sg167
(lp318
g169
ass(Vbuild
p319
g313
tp320
(dp321
Vimage-file
p322
Varch/arm/boot/zImage
p323
sVsigned-modules
p324
I00
ss(Vimage
p325
g313
tp326
(dp327
Vinstall-stem
p328
Vvmlinuz
p329
ss(Vrelations
p330
g313
tp331
(dp332
Vheaders%gcc-6
p333
Vlinux-compiler-gcc-6-arm
p334
ss(Vdescription
p335
g313
NVmarvell
p336
tp337
(dp338
Vhardware
p339
VMarvell Kirkwood/Orion
p340
sVhardware-long
p341
VMarvell Kirkwood based systems (SheevaPlug, QNAP TS-119/TS-219, etc)\u000aand Orion 5181, 5182 and 5281 based systems (QNAP TS-109/TS-209, etc)
p342
ss(Vimage
p343
g313
NVmarvell
p344
tp345
(dp346
Vrecommends
p347
Vu-boot-tools
p348
sVcheck-size
p349
I2097080
sVcheck-size-with-dtb
p350
I01
sVbreaks
p351
Vflash-kernel (<< 3.57~)
p352
ss(g199
g313
g169
tp353
(dp354
g202
(lp355
Vmarvell
p356
asg206
I01
ss(Vbase
p357
Varmhf
p358
tp359
(dp360
Vkernel-arch
p361
Varm
p362
sg167
(lp363
g169
ass(Vbuild
p364
g358
tp365
(dp366
Vimage-file
p367
Varch/arm/boot/zImage
p368
sVvdso
p369
I01
ss(Vimage
p370
g358
tp371
(dp372
Vinstall-stem
p373
Vvmlinuz
p374
ss(Vrelations
p375
g358
tp376
(dp377
Vheaders%gcc-6
p378
Vlinux-compiler-gcc-6-arm
p379
ss(Vdescription
p380
g358
NVarmmp
p381
tp382
(dp383
Vhardware
p384
VARMv7 multiplatform compatible SoCs
p385
sVhardware-long
p386
VARMv7 multiplatform kernel. See\u000ahttps://wiki.debian.org/DebianKernel/ARMMP for details of supported\u000aplatforms
p387
ss(Vdescription
p388
g358
NVarmmp-lpae
p389
tp390
(dp391
Vhardware
p392
VARMv7 multiplatform compatible SoCs supporting LPAE
p393
sVhardware-long
p394
VARMv7 multiplatform kernel supporting LPAE. See\u000ahttps://wiki.debian.org/DebianKernel/ARMMP for details of supported\u000aplatforms.
p395
ss(g199
g358
g169
tp396
(dp397
g202
(lp398
Varmmp
p399
aVarmmp-lpae
p400
asg206
I01
ss(Vbase
p401
Vhppa
p402
tp403
(dp404
Vkernel-arch
p405
Vparisc
p406
sg167
(lp407
g169
ass(Vbuild
p408
g402
tp409
(dp410
Vimage-file
p411
Vvmlinux
p412
sVsigned-modules
p413
I00
ss(Vimage
p414
g402
tp415
(dp416
Vsuggests
p417
Vpalo
p418
sVinstall-stem
p419
Vvmlinux
p420
ss(Vdescription
p421
g402
NVparisc
p422
tp423
(dp424
Vhardware
p425
V32-bit PA-RISC
p426
sVhardware-long
p427
VHP PA-RISC 32-bit systems with max 4 GB RAM
p428
ss(Vbase
p429
g402
NVparisc64-smp
p430
tp431
(dp432
Vcflags
p433
V-fno-cse-follow-jumps
p434
sVoverride-host-type
p435
Vhppa64-linux-gnu
p436
ss(Vdescription
p437
g402
NVparisc64-smp
p438
tp439
(dp440
Vhardware
p441
Vmultiprocessor 64-bit PA-RISC
p442
sVhardware-long
p443
VHP PA-RISC 64-bit SMP systems with support for more than 4 GB RAM
p444
ss(Vrelations
p445
g402
tp446
(dp447
Vgcc-6
p448
Vgcc-6 <!stage1 !cross>, binutils-hppa64-linux-gnu <!stage1 !cross>, gcc-6-hppa64-linux-gnu <!stage1 !cross>, gcc-6-hppa-linux-gnu <!stage1 cross>, binutils-hppa64-linux-gnu <!stage1 cross>, gcc-6-hppa64-linux-gnu <!stage1 cross>
p449
ss(g199
g402
g169
tp450
(dp451
g202
(lp452
Vparisc
p453
aVparisc64-smp
p454
asg206
I01
ss(Vbase
p455
Vi386
p456
tp457
(dp458
Vfeaturesets
p459
(lp460
Vnone
p461
aVrt
p462
asVkernel-arch
p463
Vx86
p464
ss(Vbuild
p465
g456
tp466
(dp467
Vimage-file
p468
Varch/x86/boot/bzImage
p469
sVvdso
p470
I01
ss(Vdescription
p471
g456
tp472
(dp473
Vpart-long-pae
p474
VThis kernel requires PAE (Physical Address Extension).\u000aThis feature is supported by the Intel Pentium Pro/II/III/4/4M/D, Xeon,\u000aCore and Atom; AMD Geode NX, Athlon (K7), Duron, Opteron, Sempron,\u000aTurion or Phenom; Transmeta Efficeon; VIA C7; and some other processors.
p475
ss(Vimage
p476
g456
tp477
(dp478
Vbootloaders
p479
(lp480
Vgrub-pc
p481
aVextlinux
p482
asVinstall-stem
p483
Vvmlinuz
p484
sVbreaks
p485
Vxserver-xorg-input-vmmouse (<< 1:13.0.99)
p486
ss(Vrelations
p487
g456
tp488
(dp489
Vgcc-6
p490
Vgcc-6 (>= 6.3.0-18+deb9u1~) <!stage1 !cross>, gcc-6-@gnu-type-package@ (>= 6.3.0-18+deb9u1~) <!stage1 cross>
p491
sVheaders%gcc-6
p492
Vlinux-compiler-gcc-6-x86 (>= 4.9.82-1+deb9u1~)
p493
ss(Vdescription
p494
g456
NV686
p495
tp496
(dp497
Vhardware
p498
Volder PCs
p499
sVhardware-long
p500
VPCs with one or more processors not supporting PAE
p501
ss(Vbuild
p502
g456
NV686-pae
p503
tp504
(dp505
Vdebug-info
p506
I01
ss(Vdescription
p507
g456
NV686-pae
p508
tp509
(dp510
Vhardware
p511
Vmodern PCs
p512
sVhardware-long
p513
VPCs with one or more processors supporting PAE
p514
sVparts
p515
(lp516
Vpae
p517
ass(Vbase
p518
g456
Vnone
p519
tp520
(dp521
Vflavours
p522
(lp523
V686
p524
aV686-pae
p525
ass(Vdescription
p526
g456
g519
V686-pae
p527
tp528
(dp529
Vparts
p530
(lp531
Vxen
p532
ass(Vbase
p533
g456
Vrt
p534
tp535
(dp536
Vflavours
p537
(lp538
V686-pae
p539
ass(Vbase
p540
Vm68k
p541
tp542
(dp543
Vcflags
p544
V-ffreestanding
p545
sVkernel-arch
p546
Vm68k
p547
sg167
(lp548
g169
ass(Vbuild
p549
g541
tp550
(dp551
Vimage-file
p552
Vvmlinux.gz
p553
sVsigned-modules
p554
I00
ss(Vimage
p555
g541
tp556
(dp557
Vsuggests
p558
Vvmelilo, fdutils
p559
sVinstall-stem
p560
Vvmlinuz
p561
ss(Vdescription
p562
g541
NVm68k
p563
tp564
(dp565
Vhardware
p566
VMotorola MC68020+ family
p567
ss(g199
g541
g169
tp568
(dp569
g202
(lp570
Vm68k
p571
asg206
I01
ss(Vbase
p572
Vmips
p573
tp574
(dp575
Vkernel-arch
p576
Vmips
p577
sg167
(lp578
g169
ass(Vbuild
p579
g573
tp580
(dp581
Vimage-file
p582
Vvmlinux
p583
sVsigned-modules
p584
I00
ss(Vimage
p585
g573
tp586
(dp587
Vinstall-stem
p588
Vvmlinux
p589
ss(Vdescription
p590
g573
NV4kc-malta
p591
tp592
(dp593
Vhardware
p594
VMIPS Malta
p595
sVhardware-long
p596
VMIPS Malta boards
p597
ss(Vimage
p598
g573
NV4kc-malta
p599
tp600
(dp601
Vconfigs
p602
(lp603
Vkernelarch-mips/config.malta
p604
aVkernelarch-mips/config.mips32r2
p605
ass(Vdescription
p606
g573
NV5kc-malta
p607
tp608
(dp609
Vhardware
p610
VMIPS Malta (64-bit)
p611
sVhardware-long
p612
VMIPS Malta boards (64-bit)
p613
ss(Vimage
p614
g573
NV5kc-malta
p615
tp616
(dp617
Vconfigs
p618
(lp619
Vkernelarch-mips/config.malta
p620
aVkernelarch-mips/config.mips64r2
p621
ass(Vdescription
p622
g573
NVocteon
p623
tp624
(dp625
Vhardware
p626
VOcteon
p627
sVhardware-long
p628
VCavium Networks Octeon
p629
ss(Vimage
p630
g573
NVocteon
p631
tp632
(dp633
Vconfigs
p634
(lp635
Vkernelarch-mips/config.octeon
p636
ass(g199
g573
g169
tp637
(dp638
g202
(lp639
V4kc-malta
p640
aV5kc-malta
p641
aVocteon
p642
asg206
I01
ss(Vbase
p643
Vmipsel
p644
tp645
(dp646
Vkernel-arch
p647
Vmips
p648
sg167
(lp649
g169
ass(Vbuild
p650
g644
tp651
(dp652
Vimage-file
p653
Vvmlinux
p654
sVsigned-modules
p655
I00
ss(Vimage
p656
g644
tp657
(dp658
Vinstall-stem
p659
Vvmlinux
p660
ss(Vdescription
p661
g644
NV4kc-malta
p662
tp663
(dp664
Vhardware
p665
VMIPS Malta
p666
sVhardware-long
p667
VMIPS Malta boards
p668
ss(Vimage
p669
g644
NV4kc-malta
p670
tp671
(dp672
Vconfigs
p673
(lp674
Vkernelarch-mips/config.malta
p675
aVkernelarch-mips/config.mips32r2
p676
ass(Vdescription
p677
g644
NV5kc-malta
p678
tp679
(dp680
Vhardware
p681
VMIPS Malta (64-bit)
p682
sVhardware-long
p683
VMIPS Malta boards (64-bit)
p684
ss(Vimage
p685
g644
NV5kc-malta
p686
tp687
(dp688
Vconfigs
p689
(lp690
Vkernelarch-mips/config.malta
p691
aVkernelarch-mips/config.mips64r2
p692
ass(Vdescription
p693
g644
NVloongson-3
p694
tp695
(dp696
Vhardware
p697
VLoongson 3A/3B
p698
sVhardware-long
p699
VLoongson 3A or 3B based systems (e.g. from Loongson or Lemote)
p700
ss(Vimage
p701
g644
NVloongson-3
p702
tp703
(dp704
Vconfigs
p705
(lp706
Vkernelarch-mips/config.loongson-3
p707
ass(Vdescription
p708
g644
NVocteon
p709
tp710
(dp711
Vhardware
p712
VOcteon
p713
sVhardware-long
p714
VCavium Networks Octeon
p715
ss(Vimage
p716
g644
NVocteon
p717
tp718
(dp719
Vconfigs
p720
(lp721
Vkernelarch-mips/config.octeon
p722
ass(g199
g644
g169
tp723
(dp724
g202
(lp725
V4kc-malta
p726
aV5kc-malta
p727
aVloongson-3
p728
aVocteon
p729
asg206
I01
ss(Vbase
p730
Vmipsn32
p731
tp732
(dp733
Vkernel-arch
p734
Vmips
p735
sVfeaturesets
p736
(lp737
ss(Vbase
p738
Vmipsn32el
p739
tp740
(dp741
Vkernel-arch
p742
Vmips
p743
sVfeaturesets
p744
(lp745
ss(Vbase
p746
Vmips64
p747
tp748
(dp749
Vkernel-arch
p750
Vmips
p751
sg167
(lp752
g169
ass(Vbuild
p753
g747
tp754
(dp755
Vimage-file
p756
Vvmlinux
p757
sVsigned-modules
p758
I00
ss(Vimage
p759
g747
tp760
(dp761
Vinstall-stem
p762
Vvmlinux
p763
ss(Vdescription
p764
g747
NV5kc-malta
p765
tp766
(dp767
Vhardware
p768
VMIPS Malta
p769
sVhardware-long
p770
VMIPS Malta boards
p771
ss(Vimage
p772
g747
NV5kc-malta
p773
tp774
(dp775
Vconfigs
p776
(lp777
Vkernelarch-mips/config.malta
p778
aVkernelarch-mips/config.mips64r2
p779
ass(Vdescription
p780
g747
NVocteon
p781
tp782
(dp783
Vhardware
p784
VOcteon
p785
sVhardware-long
p786
VCavium Networks Octeon
p787
ss(Vimage
p788
g747
NVocteon
p789
tp790
(dp791
Vconfigs
p792
(lp793
Vkernelarch-mips/config.octeon
p794
ass(g199
g747
g169
tp795
(dp796
g202
(lp797
V5kc-malta
p798
aVocteon
p799
asg206
I01
ss(Vbase
p800
Vmips64el
p801
tp802
(dp803
Vkernel-arch
p804
Vmips
p805
sg167
(lp806
g169
ass(Vbuild
p807
g801
tp808
(dp809
Vimage-file
p810
Vvmlinux
p811
sVsigned-modules
p812
I00
ss(Vimage
p813
g801
tp814
(dp815
Vinstall-stem
p816
Vvmlinux
p817
ss(Vdescription
p818
g801
NV5kc-malta
p819
tp820
(dp821
Vhardware
p822
VMIPS Malta
p823
sVhardware-long
p824
VMIPS Malta boards
p825
ss(Vimage
p826
g801
NV5kc-malta
p827
tp828
(dp829
Vconfigs
p830
(lp831
Vkernelarch-mips/config.malta
p832
aVkernelarch-mips/config.mips64r2
p833
ass(Vdescription
p834
g801
NVloongson-3
p835
tp836
(dp837
Vhardware
p838
VLoongson 3A/3B
p839
sVhardware-long
p840
VLoongson 3A or 3B based systems (e.g. from Loongson or Lemote)
p841
ss(Vimage
p842
g801
NVloongson-3
p843
tp844
(dp845
Vconfigs
p846
(lp847
Vkernelarch-mips/config.loongson-3
p848
ass(Vdescription
p849
g801
NVocteon
p850
tp851
(dp852
Vhardware
p853
VOcteon
p854
sVhardware-long
p855
VCavium Networks Octeon
p856
ss(Vimage
p857
g801
NVocteon
p858
tp859
(dp860
Vconfigs
p861
(lp862
Vkernelarch-mips/config.octeon
p863
ass(g199
g801
g169
tp864
(dp865
g202
(lp866
V5kc-malta
p867
aVloongson-3
p868
aVocteon
p869
asg206
I01
ss(Vbase
p870
Vpowerpc
p871
tp872
(dp873
Vkernel-arch
p874
Vpowerpc
p875
sg167
(lp876
g169
ass(Vbuild
p877
g871
tp878
(dp879
Vimage-file
p880
Vvmlinux
p881
sVvdso
p882
I01
ss(Vimage
p883
g871
tp884
(dp885
Vconfigs
p886
(lp887
sVsuggests
p888
Vmkvmlinuz
p889
sVinstall-stem
p890
Vvmlinux
p891
ss(Vdescription
p892
g871
NVpowerpc
p893
tp894
(dp895
Vhardware
p896
Vuniprocessor 32-bit PowerPC
p897
ss(Vdescription
p898
g871
NVpowerpc-smp
p899
tp900
(dp901
Vhardware
p902
Vmultiprocessor 32-bit PowerPC
p903
ss(Vimage
p904
g871
NVpowerpc-smp
p905
tp906
(dp907
Vconfigs
p908
(lp909
Vpowerpc/config.powerpc
p910
aVpowerpc/config.powerpc-smp
p911
ass(Vdescription
p912
g871
NVpowerpc64
p913
tp914
(dp915
Vhardware
p916
V64-bit PowerPC
p917
ss(Vimage
p918
g871
NVpowerpc64
p919
tp920
(dp921
Vconfigs
p922
(lp923
Vkernelarch-powerpc/config-arch-64
p924
aVkernelarch-powerpc/config-arch-64-be
p925
ass(g199
g871
g169
tp926
(dp927
g202
(lp928
Vpowerpc
p929
aVpowerpc-smp
p930
aVpowerpc64
p931
asg206
I01
ss(Vbase
p932
Vpowerpcspe
p933
tp934
(dp935
Vkernel-arch
p936
Vpowerpc
p937
sg167
(lp938
g169
ass(Vbuild
p939
g933
tp940
(dp941
Vimage-file
p942
Vvmlinux
p943
sVsigned-modules
p944
I00
sVvdso
p945
I01
ss(Vimage
p946
g933
tp947
(dp948
Vsuggests
p949
Vmkvmlinuz
p950
sVinstall-stem
p951
Vvmlinux
p952
ss(Vdescription
p953
g933
tp954
(dp955
Vhardware
p956
V32-bit PowerPC with SPE (instead of AltiVec) with SMP support
p957
ss(g199
g933
g169
tp958
(dp959
g202
(lp960
Vpowerpcspe
p961
asg206
I01
ss(Vbase
p962
Vppc64
p963
tp964
(dp965
Vkernel-arch
p966
Vpowerpc
p967
sg167
(lp968
g169
ass(Vbuild
p969
g963
tp970
(dp971
Vimage-file
p972
Vvmlinux
p973
sVsigned-modules
p974
I00
sVvdso
p975
I01
ss(Vimage
p976
g963
tp977
(dp978
Vconfigs
p979
(lp980
sVsuggests
p981
Vmkvmlinuz
p982
sVinstall-stem
p983
Vvmlinux
p984
ss(Vdescription
p985
g963
NVpowerpc64
p986
tp987
(dp988
Vhardware
p989
V64-bit PowerPC
p990
ss(Vimage
p991
g963
NVpowerpc64
p992
tp993
(dp994
Vconfigs
p995
(lp996
Vkernelarch-powerpc/config-arch-64
p997
aVkernelarch-powerpc/config-arch-64-be
p998
ass(g199
g963
g169
tp999
(dp1000
g202
(lp1001
Vpowerpc64
p1002
asg206
I01
ss(Vbase
p1003
Vppc64el
p1004
tp1005
(dp1006
Vkernel-arch
p1007
Vpowerpc
p1008
sg167
(lp1009
g169
ass(Vbuild
p1010
g1004
tp1011
(dp1012
Vimage-file
p1013
Vvmlinux
p1014
sVvdso
p1015
I01
ss(Vimage
p1016
g1004
tp1017
(dp1018
Vconfigs
p1019
(lp1020
sVsuggests
p1021
Vmkvmlinuz
p1022
sVinstall-stem
p1023
Vvmlinux
p1024
ss(Vdescription
p1025
g1004
NVpowerpc64le
p1026
tp1027
(dp1028
Vhardware
p1029
VLittle-endian 64-bit PowerPC
p1030
ss(Vimage
p1031
g1004
NVpowerpc64le
p1032
tp1033
(dp1034
Vconfigs
p1035
(lp1036
Vkernelarch-powerpc/config-arch-64
p1037
aVkernelarch-powerpc/config-arch-64-le
p1038
ass(g199
g1004
g169
tp1039
(dp1040
g202
(lp1041
Vpowerpc64le
p1042
asg206
I01
ss(Vbase
p1043
Vs390
p1044
tp1045
(dp1046
Vkernel-arch
p1047
Vs390
p1048
sVfeaturesets
p1049
(lp1050
ss(Vbase
p1051
Vs390x
p1052
tp1053
(dp1054
Vkernel-arch
p1055
Vs390
p1056
sg167
(lp1057
g169
ass(Vbuild
p1058
g1052
tp1059
(dp1060
Vimage-file
p1061
Varch/s390/boot/image
p1062
sVvdso
p1063
I01
ss(Vimage
p1064
g1052
tp1065
(dp1066
Vbootloaders
p1067
(lp1068
Vs390-tools
p1069
asVinstall-stem
p1070
Vvmlinuz
p1071
ss(Vrelations
p1072
g1052
tp1073
(dp1074
Vheaders%gcc-6
p1075
Vlinux-compiler-gcc-6-s390
p1076
ss(Vbuild
p1077
g1052
NVs390x
p1078
tp1079
(dp1080
Vdebug-info
p1081
I01
ss(Vdescription
p1082
g1052
NVs390x
p1083
tp1084
(dp1085
Vhardware
p1086
VIBM zSeries
p1087
ss(g199
g1052
g169
tp1088
(dp1089
g202
(lp1090
Vs390x
p1091
asg206
I01
ss(Vbase
p1092
Vsh3
p1093
tp1094
(dp1095
Vkernel-arch
p1096
Vsh
p1097
sVfeaturesets
p1098
(lp1099
ss(Vbase
p1100
Vsh4
p1101
tp1102
(dp1103
Vkernel-arch
p1104
Vsh
p1105
sg167
(lp1106
g169
ass(Vbuild
p1107
g1101
tp1108
(dp1109
Vimage-file
p1110
Varch/sh/boot/zImage
p1111
sVsigned-modules
p1112
I00
ss(Vimage
p1113
g1101
tp1114
(dp1115
Vinstall-stem
p1116
Vvmlinuz
p1117
ss(Vdescription
p1118
g1101
NVsh7751r
p1119
tp1120
(dp1121
Vhardware
p1122
Vsh7751r
p1123
sVhardware-long
p1124
VRenesas SH7751R R2D plus board
p1125
ss(Vdescription
p1126
g1101
NVsh7785lcr
p1127
tp1128
(dp1129
Vhardware
p1130
Vsh7785lcr
p1131
sVhardware-long
p1132
VRenesas SH7785 reference board
p1133
ss(Vimage
p1134
g1101
NVsh7785lcr
p1135
tp1136
(dp1137
Vrecommends
p1138
Vu-boot-tools
p1139
sVcheck-size
p1140
I4194304
ss(g199
g1101
g169
tp1141
(dp1142
g202
(lp1143
Vsh7751r
p1144
aVsh7785lcr
p1145
asg206
I01
ss(Vbase
p1146
Vsparc
p1147
tp1148
(dp1149
Vkernel-arch
p1150
Vsparc
p1151
sVfeaturesets
p1152
(lp1153
ss(Vbase
p1154
Vsparc64
p1155
tp1156
(dp1157
Vkernel-arch
p1158
Vsparc
p1159
sg167
(lp1160
g169
ass(Vbuild
p1161
g1155
tp1162
(dp1163
Vimage-file
p1164
Varch/sparc/boot/zImage
p1165
sVsigned-modules
p1166
I00
ss(Vimage
p1167
g1155
tp1168
(dp1169
Vconfigs
p1170
(lp1171
sVsuggests
p1172
Vsilo, fdutils
p1173
sVinstall-stem
p1174
Vvmlinuz
p1175
ss(Vdescription
p1176
g1155
NVsparc64
p1177
tp1178
(dp1179
Vhardware
p1180
Vuniprocessor 64-bit UltraSPARC
p1181
ss(Vimage
p1182
g1155
NVsparc64
p1183
tp1184
(dp1185
Vconfigs
p1186
(lp1187
Vkernelarch-sparc/config-up
p1188
ass(Vdescription
p1189
g1155
NVsparc64-smp
p1190
tp1191
(dp1192
Vhardware
p1193
Vmultiprocessor 64-bit UltraSPARC
p1194
ss(Vimage
p1195
g1155
NVsparc64-smp
p1196
tp1197
(dp1198
Vconfigs
p1199
(lp1200
Vkernelarch-sparc/config-smp
p1201
ass(g199
g1155
g169
tp1202
(dp1203
g202
(lp1204
Vsparc64
p1205
aVsparc64-smp
p1206
asg206
I01
ss(Vbase
p1207
Vtilegx
p1208
tp1209
(dp1210
Vkernel-arch
p1211
Vtile
p1212
sVfeaturesets
p1213
(lp1214
ss(Vbase
p1215
Vx32
p1216
tp1217
(dp1218
Vkernel-arch
p1219
Vx86
p1220
sVfeaturesets
p1221
(lp1222
ss(Vabi
p1223
NVrt
p1224
tp1225
(dp1226
Vignore-changes
p1227
(lp1228
V*
p1229
ass(Vdescription
p1230
Ng1224
tp1231
(dp1232
Vpart-long-rt
p1233
VThis kernel includes the PREEMPT_RT realtime patch set.
p1234
sVpart-short-rt
p1235
VPREEMPT_RT
p1236
sVparts
p1237
(lp1238
Vrt
p1239
ass(Vversion
p1240
tp1241
(dp1242
Vsource
p1243
V4.9.168-1+deb9u4
p1244
sVupstream
p1245
V4.9
p1246
sVabiname_base
p1247
V4.9.0
p1248
sVabiname
p1249
V4.9.0-9
p1250
ss.