cdebian_linux.config
ConfigCore
p0
(tRp1
(Vbase
p2
tp3
(dp4
Varches
p5
(lp6
Valpha
p7
aVamd64
p8
aVarm64
p9
aVarmel
p10
aVarmhf
p11
aVhppa
p12
aVi386
p13
aVm68k
p14
aVmips
p15
aVmipsel
p16
aVmipsn32
p17
aVmipsn32el
p18
aVmips64
p19
aVmips64el
p20
aVpowerpc
p21
aVpowerpcspe
p22
aVppc64
p23
aVppc64el
p24
aVs390
p25
aVs390x
p26
aVsh3
p27
aVsh4
p28
aVsparc
p29
aVsparc64
p30
aVtilegx
p31
aVx32
p32
asVfeaturesets
p33
(lp34
Vnone
p35
aVrt
p36
asVcompiler
p37
Vgcc-6
p38
ss(Vbuild
p39
tp40
(dp41
Vsigned-modules
p42
I00
sVdebug-info
p43
I01
ss(Vbase
p44
NVrt
p45
tp46
(dp47
Venabled
p48
I01
ss(Vdescription
p49
tp50
(dp51
Vpart-long-up
p52
VThis kernel is not suitable for SMP (multi-processor,\u000amulti-core or hyper-threaded) systems.
p53
sVpart-long-xen
p54
VThis kernel also runs on a Xen hypervisor.\u000aIt supports both privileged (dom0) and unprivileged (domU) operation.
p55
ss(Vrelations
p56
tp57
(dp58
Vinitramfs-tools
p59
Vinitramfs-tools (>= 0.120+deb8u2)
p60
sVgcc-6
p61
Vgcc-6 <!stage1 !cross>, gcc-6-@gnu-type-package@ <!stage1 cross>
p62
sVinitramfs-fallback
p63
Vlinux-initramfs-tool
p64
ss(Vimage
p65
tp66
(dp67
Vinitramfs-generators
p68
(lp69
Vinitramfs-tools
p70
aVinitramfs-fallback
p71
ass(Vabi
p72
tp73
(dp74
Vabiname
p75
V7
p76
sVignore-changes
p77
(lp78
V__cpuhp_*
p79
aVbpf_analyzer
p80
aVcxl_*
p81
aVinet_frag_*
p82
aVinet_frags_*
p83
aVmm_iommu_*
p84
aVmv_mbus_*
p85
aVregister_cxl_calls
p86
aVregister_key_type
p87
aVtpm_*
p88
aVtpmm_chip_alloc
p89
aVunregister_cxl_calls
p90
aVmodule:arch/x86/kvm/*
p91
aVmodule:drivers/crypto/ccp/*
p92
aVmodule:drivers/hv/*
p93
aVmodule:drivers/iio/common/hid-sensors/*
p94
aVmodule:drivers/iio/common/st_sensors/**
p95
aVmodule:drivers/net/wireless/**
p96
aVmodule:drivers/nvdimm/*
p97
aVmodule:drivers/nvme/**
p98
aVmodule:drivers/power/supply/bq27xxx_battery
p99
aVmodule:drivers/s390/net/qeth
p100
aVmodule:drivers/s390/net/qeth*
p101
aVmodule:drivers/scsi/cxgbi/*
p102
aVmodule:drivers/scsi/libiscs*
p103
aVmodule:drivers/scsi/qla2xxx/qla2xxx
p104
aVmodule:drivers/scsi/ufs/*
p105
aVmodule:drivers/target/**
p106
aVmodule:drivers/usb/chipidea/**
p107
aVmodule:drivers/usb/gadget/**
p108
aVmodule:drivers/usb/host/**
p109
aVmodule:drivers/usb/musb/**
p110
aVmodule:fs/nfs/nfs
p111
aVmodule:net/ceph/libceph
p112
aVmodule:net/l2tp/**
p113
aVmodule:sound/firewire/snd-firewire-lib
p114
aVbtree_*
p115
aVvisitor*
p116
aVcan_rx_register
p117
aVip6_xmit
p118
aVmodule:net/dccp/dccp
p119
aVmodule:net/rds/rds
p120
aVdevfreq_*
p121
aVdevm_devfreq_*
p122
aVupdate_devfreq
p123
aVmodule:drivers/infiniband/**
p124
aVacpi_ec_add_query_handler
p125
aVacpi_ec_remove_query_handler
p126
aVfirst_ec
p127
aVdebugfs_create_automount
p128
ass(Vbase
p129
Valpha
p130
tp131
(dp132
Vfeaturesets
p133
(lp134
Vnone
p135
asVkernel-arch
p136
Valpha
p137
ss(Vdescription
p138
g130
NValpha-smp
p139
tp140
(dp141
Vhardware
p142
VAlpha SMP
p143
sVhardware-long
p144
VDEC Alpha SMP systems with extended kernel start address (Wildfire, Titan, Marvel)
p145
ss(Vbuild
p146
g130
tp147
(dp148
Vsigned-modules
p149
I00
sVimage-file
p150
Varch/alpha/boot/vmlinux.gz
p151
ss(Vdescription
p152
g130
NValpha-generic
p153
tp154
(dp155
Vhardware
p156
VAlpha
p157
sVhardware-long
p158
VDEC Alpha systems with extended kernel start address (Wildfire, Titan, Marvel)
p159
ss(Vimage
p160
g130
tp161
(dp162
Vsuggests
p163
Vaboot, fdutils
p164
sVinstall-stem
p165
Vvmlinuz
p166
ss(Vbase
p167
g130
g135
tp168
(dp169
Vflavours
p170
(lp171
Valpha-generic
p172
aValpha-smp
p173
asVimplicit-flavour
p174
I01
ss(Vbase
p175
Vamd64
p176
tp177
(dp178
Vfeaturesets
p179
(lp180
Vnone
p181
aVrt
p182
asVkernel-arch
p183
Vx86
p184
ss(Vdescription
p185
g176
NVamd64
p186
tp187
(dp188
Vhardware
p189
V64-bit PCs
p190
sVhardware-long
p191
VPCs with AMD64, Intel 64 or VIA Nano processors
p192
ss(Vbuild
p193
g176
tp194
(dp195
Vvdso
p196
I01
sVimage-file
p197
Varch/x86/boot/bzImage
p198
sVdebug-info
p199
I01
ss(Vrelations
p200
g176
tp201
(dp202
Vheaders%gcc-6
p203
Vlinux-compiler-gcc-6-x86 (>= 4.9.82-1+deb9u1~)
p204
sVgcc-6
p205
Vgcc-6 (>= 6.3.0-18+deb9u1~) <!stage1 !cross>, gcc-6-@gnu-type-package@ (>= 6.3.0-18+deb9u1~) <!stage1 cross>
p206
ss(Vimage
p207
g176
tp208
(dp209
Vbreaks
p210
Vxserver-xorg-input-vmmouse (<< 1:13.0.99)
p211
sVinstall-stem
p212
Vvmlinuz
p213
sVbootloaders
p214
(lp215
Vgrub-pc
p216
aVgrub-efi-amd64
p217
aVextlinux
p218
ass(Vbase
p219
g176
Vnone
p220
tp221
(dp222
Vflavours
p223
(lp224
Vamd64
p225
ass(Vdescription
p226
g176
g220
Vamd64
p227
tp228
(dp229
Vparts
p230
(lp231
Vxen
p232
ass(Vbase
p233
g176
Vrt
p234
tp235
(dp236
Vflavours
p237
(lp238
Vamd64
p239
ass(Vbase
p240
Varm64
p241
tp242
(dp243
Vfeaturesets
p244
(lp245
Vnone
p246
asVkernel-arch
p247
Varm64
p248
ss(Vdescription
p249
g241
NVarm64
p250
tp251
(dp252
Vhardware
p253
V64-bit ARMv8 machines
p254
ss(Vbuild
p255
g241
tp256
(dp257
Vvdso
p258
I01
sVimage-file
p259
Varch/arm64/boot/Image
p260
sVdebug-info
p261
I01
ss(Vimage
p262
g241
NVarm64
p263
tp264
(dp265
s(Vimage
p266
g241
tp267
(dp268
Vbreaks
p269
Vlibmozjs185-1.0, libmozjs-24-0 (<< 24.2.0-5.1~)
p270
sVinstall-stem
p271
Vvmlinuz
p272
ss(Vbase
p273
g241
Vnone
p274
tp275
(dp276
Vflavours
p277
(lp278
Varm64
p279
ass(Vbase
p280
Varmel
p281
tp282
(dp283
g133
(lp284
g135
asVkernel-arch
p285
Varm
p286
ss(Vbuild
p287
g281
tp288
(dp289
Vsigned-modules
p290
I00
sVimage-file
p291
Varch/arm/boot/zImage
p292
ss(Vimage
p293
g281
NVmarvell
p294
tp295
(dp296
Vrecommends
p297
Vu-boot-tools
p298
sVbreaks
p299
Vflash-kernel (<< 3.57~)
p300
sVcheck-size-with-dtb
p301
I01
sVcheck-size
p302
L2097080L
ss(Vdescription
p303
g281
NVmarvell
p304
tp305
(dp306
Vhardware
p307
VMarvell Kirkwood/Orion
p308
sVhardware-long
p309
VMarvell Kirkwood based systems (SheevaPlug, QNAP TS-119/TS-219, etc)\u000aand Orion 5181, 5182 and 5281 based systems (QNAP TS-109/TS-209, etc)
p310
ss(Vrelations
p311
g281
tp312
(dp313
Vheaders%gcc-6
p314
Vlinux-compiler-gcc-6-arm
p315
ss(Vimage
p316
g281
tp317
(dp318
Vinstall-stem
p319
Vvmlinuz
p320
ss(g167
g281
g135
tp321
(dp322
g170
(lp323
Vmarvell
p324
asg174
I01
ss(Vbase
p325
Varmhf
p326
tp327
(dp328
g133
(lp329
g135
asVkernel-arch
p330
Varm
p331
ss(Vdescription
p332
g326
NVarmmp
p333
tp334
(dp335
Vhardware
p336
VARMv7 multiplatform compatible SoCs
p337
sVhardware-long
p338
VARMv7 multiplatform kernel. See\u000ahttps://wiki.debian.org/DebianKernel/ARMMP for details of supported\u000aplatforms
p339
ss(Vbuild
p340
g326
tp341
(dp342
Vvdso
p343
I01
sVimage-file
p344
Varch/arm/boot/zImage
p345
ss(Vdescription
p346
g326
NVarmmp-lpae
p347
tp348
(dp349
Vhardware
p350
VARMv7 multiplatform compatible SoCs supporting LPAE
p351
sVhardware-long
p352
VARMv7 multiplatform kernel supporting LPAE. See\u000ahttps://wiki.debian.org/DebianKernel/ARMMP for details of supported\u000aplatforms.
p353
ss(Vrelations
p354
g326
tp355
(dp356
Vheaders%gcc-6
p357
Vlinux-compiler-gcc-6-arm
p358
ss(Vimage
p359
g326
tp360
(dp361
Vinstall-stem
p362
Vvmlinuz
p363
ss(g167
g326
g135
tp364
(dp365
g170
(lp366
Varmmp
p367
aVarmmp-lpae
p368
asg174
I01
ss(Vbase
p369
Vhppa
p370
tp371
(dp372
g133
(lp373
g135
asVkernel-arch
p374
Vparisc
p375
ss(Vbuild
p376
g370
tp377
(dp378
Vsigned-modules
p379
I00
sVimage-file
p380
Vvmlinux
p381
ss(Vdescription
p382
g370
NVparisc64-smp
p383
tp384
(dp385
Vhardware
p386
Vmultiprocessor 64-bit PA-RISC
p387
sVhardware-long
p388
VHP PA-RISC 64-bit SMP systems with support for more than 4 GB RAM
p389
ss(Vbase
p390
g370
NVparisc64-smp
p391
tp392
(dp393
Vcflags
p394
V-fno-cse-follow-jumps
p395
sVoverride-host-type
p396
Vhppa64-linux-gnu
p397
ss(Vrelations
p398
g370
tp399
(dp400
Vgcc-6
p401
Vgcc-6 <!stage1 !cross>, binutils-hppa64-linux-gnu <!stage1 !cross>, gcc-6-hppa64-linux-gnu <!stage1 !cross>, gcc-6-hppa-linux-gnu <!stage1 cross>, binutils-hppa64-linux-gnu <!stage1 cross>, gcc-6-hppa64-linux-gnu <!stage1 cross>
p402
ss(Vdescription
p403
g370
NVparisc
p404
tp405
(dp406
Vhardware
p407
V32-bit PA-RISC
p408
sVhardware-long
p409
VHP PA-RISC 32-bit systems with max 4 GB RAM
p410
ss(Vimage
p411
g370
tp412
(dp413
Vsuggests
p414
Vpalo
p415
sVinstall-stem
p416
Vvmlinux
p417
ss(g167
g370
g135
tp418
(dp419
g170
(lp420
Vparisc
p421
aVparisc64-smp
p422
asg174
I01
ss(Vbase
p423
Vi386
p424
tp425
(dp426
Vfeaturesets
p427
(lp428
Vnone
p429
aVrt
p430
asVkernel-arch
p431
Vx86
p432
ss(Vbuild
p433
g424
tp434
(dp435
Vvdso
p436
I01
sVimage-file
p437
Varch/x86/boot/bzImage
p438
ss(Vdescription
p439
g424
NV686-pae
p440
tp441
(dp442
Vhardware
p443
Vmodern PCs
p444
sVhardware-long
p445
VPCs with one or more processors supporting PAE
p446
sVparts
p447
(lp448
Vpae
p449
ass(Vdescription
p450
g424
tp451
(dp452
Vpart-long-pae
p453
VThis kernel requires PAE (Physical Address Extension).\u000aThis feature is supported by the Intel Pentium Pro/II/III/4/4M/D, Xeon,\u000aCore and Atom; AMD Geode NX, Athlon (K7), Duron, Opteron, Sempron,\u000aTurion or Phenom; Transmeta Efficeon; VIA C7; and some other processors.
p454
ss(Vbuild
p455
g424
NV686-pae
p456
tp457
(dp458
Vdebug-info
p459
I01
ss(Vdescription
p460
g424
NV686
p461
tp462
(dp463
Vhardware
p464
Volder PCs
p465
sVhardware-long
p466
VPCs with one or more processors not supporting PAE
p467
ss(Vrelations
p468
g424
tp469
(dp470
Vheaders%gcc-6
p471
Vlinux-compiler-gcc-6-x86 (>= 4.9.82-1+deb9u1~)
p472
sVgcc-6
p473
Vgcc-6 (>= 6.3.0-18+deb9u1~) <!stage1 !cross>, gcc-6-@gnu-type-package@ (>= 6.3.0-18+deb9u1~) <!stage1 cross>
p474
ss(Vimage
p475
g424
tp476
(dp477
Vbreaks
p478
Vxserver-xorg-input-vmmouse (<< 1:13.0.99)
p479
sVinstall-stem
p480
Vvmlinuz
p481
sVbootloaders
p482
(lp483
Vgrub-pc
p484
aVextlinux
p485
ass(Vbase
p486
g424
Vnone
p487
tp488
(dp489
Vflavours
p490
(lp491
V686
p492
aV686-pae
p493
ass(Vdescription
p494
g424
g487
V686-pae
p495
tp496
(dp497
Vparts
p498
(lp499
Vxen
p500
ass(Vbase
p501
g424
Vrt
p502
tp503
(dp504
Vflavours
p505
(lp506
V686-pae
p507
ass(Vbase
p508
Vm68k
p509
tp510
(dp511
Vcflags
p512
V-ffreestanding
p513
sg133
(lp514
g135
asVkernel-arch
p515
Vm68k
p516
ss(Vbuild
p517
g509
tp518
(dp519
Vsigned-modules
p520
I00
sVimage-file
p521
Vvmlinux.gz
p522
ss(Vdescription
p523
g509
NVm68k
p524
tp525
(dp526
Vhardware
p527
VMotorola MC68020+ family
p528
ss(Vimage
p529
g509
tp530
(dp531
Vsuggests
p532
Vvmelilo, fdutils
p533
sVinstall-stem
p534
Vvmlinuz
p535
ss(g167
g509
g135
tp536
(dp537
g170
(lp538
Vm68k
p539
asg174
I01
ss(Vbase
p540
Vmips
p541
tp542
(dp543
g133
(lp544
g135
asVkernel-arch
p545
Vmips
p546
ss(Vbuild
p547
g541
tp548
(dp549
Vsigned-modules
p550
I00
sVimage-file
p551
Vvmlinux
p552
ss(Vimage
p553
g541
NV4kc-malta
p554
tp555
(dp556
Vconfigs
p557
(lp558
Vkernelarch-mips/config.malta
p559
aVkernelarch-mips/config.mips32r2
p560
ass(Vimage
p561
g541
NV5kc-malta
p562
tp563
(dp564
Vconfigs
p565
(lp566
Vkernelarch-mips/config.malta
p567
aVkernelarch-mips/config.mips64r2
p568
ass(Vdescription
p569
g541
NVocteon
p570
tp571
(dp572
Vhardware
p573
VOcteon
p574
sVhardware-long
p575
VCavium Networks Octeon
p576
ss(Vimage
p577
g541
NVocteon
p578
tp579
(dp580
Vconfigs
p581
(lp582
Vkernelarch-mips/config.octeon
p583
ass(Vimage
p584
g541
tp585
(dp586
Vinstall-stem
p587
Vvmlinux
p588
ss(Vdescription
p589
g541
NV5kc-malta
p590
tp591
(dp592
Vhardware
p593
VMIPS Malta (64-bit)
p594
sVhardware-long
p595
VMIPS Malta boards (64-bit)
p596
ss(Vdescription
p597
g541
NV4kc-malta
p598
tp599
(dp600
Vhardware
p601
VMIPS Malta
p602
sVhardware-long
p603
VMIPS Malta boards
p604
ss(g167
g541
g135
tp605
(dp606
g170
(lp607
V4kc-malta
p608
aV5kc-malta
p609
aVocteon
p610
asg174
I01
ss(Vbase
p611
Vmipsel
p612
tp613
(dp614
g133
(lp615
g135
asVkernel-arch
p616
Vmips
p617
ss(Vimage
p618
g612
NVloongson-3
p619
tp620
(dp621
Vconfigs
p622
(lp623
Vkernelarch-mips/config.loongson-3
p624
ass(Vbuild
p625
g612
tp626
(dp627
Vsigned-modules
p628
I00
sVimage-file
p629
Vvmlinux
p630
ss(Vimage
p631
g612
NV4kc-malta
p632
tp633
(dp634
Vconfigs
p635
(lp636
Vkernelarch-mips/config.malta
p637
aVkernelarch-mips/config.mips32r2
p638
ass(Vimage
p639
g612
NV5kc-malta
p640
tp641
(dp642
Vconfigs
p643
(lp644
Vkernelarch-mips/config.malta
p645
aVkernelarch-mips/config.mips64r2
p646
ass(Vdescription
p647
g612
NVocteon
p648
tp649
(dp650
Vhardware
p651
VOcteon
p652
sVhardware-long
p653
VCavium Networks Octeon
p654
ss(Vdescription
p655
g612
NVloongson-3
p656
tp657
(dp658
Vhardware
p659
VLoongson 3A/3B
p660
sVhardware-long
p661
VLoongson 3A or 3B based systems (e.g. from Loongson or Lemote)
p662
ss(Vimage
p663
g612
NVocteon
p664
tp665
(dp666
Vconfigs
p667
(lp668
Vkernelarch-mips/config.octeon
p669
ass(Vimage
p670
g612
tp671
(dp672
Vinstall-stem
p673
Vvmlinux
p674
ss(Vdescription
p675
g612
NV5kc-malta
p676
tp677
(dp678
Vhardware
p679
VMIPS Malta (64-bit)
p680
sVhardware-long
p681
VMIPS Malta boards (64-bit)
p682
ss(Vdescription
p683
g612
NV4kc-malta
p684
tp685
(dp686
Vhardware
p687
VMIPS Malta
p688
sVhardware-long
p689
VMIPS Malta boards
p690
ss(g167
g612
g135
tp691
(dp692
g170
(lp693
V4kc-malta
p694
aV5kc-malta
p695
aVloongson-3
p696
aVocteon
p697
asg174
I01
ss(Vbase
p698
Vmipsn32
p699
tp700
(dp701
Vfeaturesets
p702
(lp703
sVkernel-arch
p704
Vmips
p705
ss(Vbase
p706
Vmipsn32el
p707
tp708
(dp709
Vfeaturesets
p710
(lp711
sVkernel-arch
p712
Vmips
p713
ss(Vbase
p714
Vmips64
p715
tp716
(dp717
g133
(lp718
g135
asVkernel-arch
p719
Vmips
p720
ss(Vbuild
p721
g715
tp722
(dp723
Vsigned-modules
p724
I00
sVimage-file
p725
Vvmlinux
p726
ss(Vimage
p727
g715
NV5kc-malta
p728
tp729
(dp730
Vconfigs
p731
(lp732
Vkernelarch-mips/config.malta
p733
aVkernelarch-mips/config.mips64r2
p734
ass(Vdescription
p735
g715
NVocteon
p736
tp737
(dp738
Vhardware
p739
VOcteon
p740
sVhardware-long
p741
VCavium Networks Octeon
p742
ss(Vimage
p743
g715
tp744
(dp745
Vinstall-stem
p746
Vvmlinux
p747
ss(Vdescription
p748
g715
NV5kc-malta
p749
tp750
(dp751
Vhardware
p752
VMIPS Malta
p753
sVhardware-long
p754
VMIPS Malta boards
p755
ss(Vimage
p756
g715
NVocteon
p757
tp758
(dp759
Vconfigs
p760
(lp761
Vkernelarch-mips/config.octeon
p762
ass(g167
g715
g135
tp763
(dp764
g170
(lp765
V5kc-malta
p766
aVocteon
p767
asg174
I01
ss(Vbase
p768
Vmips64el
p769
tp770
(dp771
g133
(lp772
g135
asVkernel-arch
p773
Vmips
p774
ss(Vimage
p775
g769
NVloongson-3
p776
tp777
(dp778
Vconfigs
p779
(lp780
Vkernelarch-mips/config.loongson-3
p781
ass(Vbuild
p782
g769
tp783
(dp784
Vsigned-modules
p785
I00
sVimage-file
p786
Vvmlinux
p787
ss(Vimage
p788
g769
NV5kc-malta
p789
tp790
(dp791
Vconfigs
p792
(lp793
Vkernelarch-mips/config.malta
p794
aVkernelarch-mips/config.mips64r2
p795
ass(Vdescription
p796
g769
NVocteon
p797
tp798
(dp799
Vhardware
p800
VOcteon
p801
sVhardware-long
p802
VCavium Networks Octeon
p803
ss(Vdescription
p804
g769
NVloongson-3
p805
tp806
(dp807
Vhardware
p808
VLoongson 3A/3B
p809
sVhardware-long
p810
VLoongson 3A or 3B based systems (e.g. from Loongson or Lemote)
p811
ss(Vimage
p812
g769
tp813
(dp814
Vinstall-stem
p815
Vvmlinux
p816
ss(Vdescription
p817
g769
NV5kc-malta
p818
tp819
(dp820
Vhardware
p821
VMIPS Malta
p822
sVhardware-long
p823
VMIPS Malta boards
p824
ss(Vimage
p825
g769
NVocteon
p826
tp827
(dp828
Vconfigs
p829
(lp830
Vkernelarch-mips/config.octeon
p831
ass(g167
g769
g135
tp832
(dp833
g170
(lp834
V5kc-malta
p835
aVloongson-3
p836
aVocteon
p837
asg174
I01
ss(Vbase
p838
Vpowerpc
p839
tp840
(dp841
g133
(lp842
g135
asVkernel-arch
p843
Vpowerpc
p844
ss(Vdescription
p845
g839
NVpowerpc64
p846
tp847
(dp848
Vhardware
p849
V64-bit PowerPC
p850
ss(Vbuild
p851
g839
tp852
(dp853
Vvdso
p854
I01
sVimage-file
p855
Vvmlinux
p856
ss(Vimage
p857
g839
NVpowerpc-smp
p858
tp859
(dp860
Vconfigs
p861
(lp862
Vpowerpc/config.powerpc
p863
aVpowerpc/config.powerpc-smp
p864
ass(Vdescription
p865
g839
NVpowerpc
p866
tp867
(dp868
Vhardware
p869
Vuniprocessor 32-bit PowerPC
p870
ss(Vimage
p871
g839
NVpowerpc64
p872
tp873
(dp874
Vconfigs
p875
(lp876
Vkernelarch-powerpc/config-arch-64
p877
aVkernelarch-powerpc/config-arch-64-be
p878
ass(Vdescription
p879
g839
NVpowerpc-smp
p880
tp881
(dp882
Vhardware
p883
Vmultiprocessor 32-bit PowerPC
p884
ss(Vimage
p885
g839
tp886
(dp887
Vsuggests
p888
Vmkvmlinuz
p889
sVinstall-stem
p890
Vvmlinux
p891
sVconfigs
p892
(lp893
ss(g167
g839
g135
tp894
(dp895
g170
(lp896
Vpowerpc
p897
aVpowerpc-smp
p898
aVpowerpc64
p899
asg174
I01
ss(Vbase
p900
Vpowerpcspe
p901
tp902
(dp903
g133
(lp904
g135
asVkernel-arch
p905
Vpowerpc
p906
ss(Vbuild
p907
g901
tp908
(dp909
Vsigned-modules
p910
I00
sVimage-file
p911
Vvmlinux
p912
sVvdso
p913
I01
ss(Vimage
p914
g901
tp915
(dp916
Vsuggests
p917
Vmkvmlinuz
p918
sVinstall-stem
p919
Vvmlinux
p920
ss(Vdescription
p921
g901
tp922
(dp923
Vhardware
p924
V32-bit PowerPC with SPE (instead of AltiVec) with SMP support
p925
ss(g167
g901
g135
tp926
(dp927
g170
(lp928
Vpowerpcspe
p929
asg174
I01
ss(Vbase
p930
Vppc64
p931
tp932
(dp933
g133
(lp934
g135
asVkernel-arch
p935
Vpowerpc
p936
ss(Vdescription
p937
g931
NVpowerpc64
p938
tp939
(dp940
Vhardware
p941
V64-bit PowerPC
p942
ss(Vbuild
p943
g931
tp944
(dp945
Vsigned-modules
p946
I00
sVimage-file
p947
Vvmlinux
p948
sVvdso
p949
I01
ss(Vimage
p950
g931
NVpowerpc64
p951
tp952
(dp953
Vconfigs
p954
(lp955
Vkernelarch-powerpc/config-arch-64
p956
aVkernelarch-powerpc/config-arch-64-be
p957
ass(Vimage
p958
g931
tp959
(dp960
Vsuggests
p961
Vmkvmlinuz
p962
sVinstall-stem
p963
Vvmlinux
p964
sVconfigs
p965
(lp966
ss(g167
g931
g135
tp967
(dp968
g170
(lp969
Vpowerpc64
p970
asg174
I01
ss(Vbase
p971
Vppc64el
p972
tp973
(dp974
g133
(lp975
g135
asVkernel-arch
p976
Vpowerpc
p977
ss(Vdescription
p978
g972
NVpowerpc64le
p979
tp980
(dp981
Vhardware
p982
VLittle-endian 64-bit PowerPC
p983
ss(Vbuild
p984
g972
tp985
(dp986
Vvdso
p987
I01
sVimage-file
p988
Vvmlinux
p989
ss(Vimage
p990
g972
tp991
(dp992
Vsuggests
p993
Vmkvmlinuz
p994
sVinstall-stem
p995
Vvmlinux
p996
sVconfigs
p997
(lp998
ss(Vimage
p999
g972
NVpowerpc64le
p1000
tp1001
(dp1002
Vconfigs
p1003
(lp1004
Vkernelarch-powerpc/config-arch-64
p1005
aVkernelarch-powerpc/config-arch-64-le
p1006
ass(g167
g972
g135
tp1007
(dp1008
g170
(lp1009
Vpowerpc64le
p1010
asg174
I01
ss(Vbase
p1011
Vs390
p1012
tp1013
(dp1014
Vfeaturesets
p1015
(lp1016
sVkernel-arch
p1017
Vs390
p1018
ss(Vbase
p1019
Vs390x
p1020
tp1021
(dp1022
g133
(lp1023
g135
asVkernel-arch
p1024
Vs390
p1025
ss(Vdescription
p1026
g1020
NVs390x
p1027
tp1028
(dp1029
Vhardware
p1030
VIBM zSeries
p1031
ss(Vbuild
p1032
g1020
tp1033
(dp1034
Vvdso
p1035
I01
sVimage-file
p1036
Varch/s390/boot/image
p1037
ss(Vbuild
p1038
g1020
NVs390x
p1039
tp1040
(dp1041
Vdebug-info
p1042
I01
ss(Vrelations
p1043
g1020
tp1044
(dp1045
Vheaders%gcc-6
p1046
Vlinux-compiler-gcc-6-s390
p1047
ss(Vimage
p1048
g1020
tp1049
(dp1050
Vinstall-stem
p1051
Vvmlinuz
p1052
sVbootloaders
p1053
(lp1054
Vs390-tools
p1055
ass(g167
g1020
g135
tp1056
(dp1057
g170
(lp1058
Vs390x
p1059
asg174
I01
ss(Vbase
p1060
Vsh3
p1061
tp1062
(dp1063
Vfeaturesets
p1064
(lp1065
sVkernel-arch
p1066
Vsh
p1067
ss(Vbase
p1068
Vsh4
p1069
tp1070
(dp1071
g133
(lp1072
g135
asVkernel-arch
p1073
Vsh
p1074
ss(Vbuild
p1075
g1069
tp1076
(dp1077
Vsigned-modules
p1078
I00
sVimage-file
p1079
Varch/sh/boot/zImage
p1080
ss(Vdescription
p1081
g1069
NVsh7751r
p1082
tp1083
(dp1084
Vhardware
p1085
Vsh7751r
p1086
sVhardware-long
p1087
VRenesas SH7751R R2D plus board
p1088
ss(Vdescription
p1089
g1069
NVsh7785lcr
p1090
tp1091
(dp1092
Vhardware
p1093
Vsh7785lcr
p1094
sVhardware-long
p1095
VRenesas SH7785 reference board
p1096
ss(Vimage
p1097
g1069
tp1098
(dp1099
Vinstall-stem
p1100
Vvmlinuz
p1101
ss(Vimage
p1102
g1069
NVsh7785lcr
p1103
tp1104
(dp1105
Vrecommends
p1106
Vu-boot-tools
p1107
sVcheck-size
p1108
L4194304L
ss(g167
g1069
g135
tp1109
(dp1110
g170
(lp1111
Vsh7751r
p1112
aVsh7785lcr
p1113
asg174
I01
ss(Vbase
p1114
Vsparc
p1115
tp1116
(dp1117
Vfeaturesets
p1118
(lp1119
sVkernel-arch
p1120
Vsparc
p1121
ss(Vbase
p1122
Vsparc64
p1123
tp1124
(dp1125
g133
(lp1126
g135
asVkernel-arch
p1127
Vsparc
p1128
ss(Vbuild
p1129
g1123
tp1130
(dp1131
Vsigned-modules
p1132
I00
sVimage-file
p1133
Varch/sparc/boot/zImage
p1134
ss(Vimage
p1135
g1123
NVsparc64
p1136
tp1137
(dp1138
Vconfigs
p1139
(lp1140
Vkernelarch-sparc/config-up
p1141
ass(Vimage
p1142
g1123
NVsparc64-smp
p1143
tp1144
(dp1145
Vconfigs
p1146
(lp1147
Vkernelarch-sparc/config-smp
p1148
ass(Vimage
p1149
g1123
tp1150
(dp1151
Vsuggests
p1152
Vsilo, fdutils
p1153
sVinstall-stem
p1154
Vvmlinuz
p1155
sVconfigs
p1156
(lp1157
ss(Vdescription
p1158
g1123
NVsparc64-smp
p1159
tp1160
(dp1161
Vhardware
p1162
Vmultiprocessor 64-bit UltraSPARC
p1163
ss(Vdescription
p1164
g1123
NVsparc64
p1165
tp1166
(dp1167
Vhardware
p1168
Vuniprocessor 64-bit UltraSPARC
p1169
ss(g167
g1123
g135
tp1170
(dp1171
g170
(lp1172
Vsparc64
p1173
aVsparc64-smp
p1174
asg174
I01
ss(Vbase
p1175
Vtilegx
p1176
tp1177
(dp1178
Vfeaturesets
p1179
(lp1180
sVkernel-arch
p1181
Vtile
p1182
ss(Vbase
p1183
Vx32
p1184
tp1185
(dp1186
Vfeaturesets
p1187
(lp1188
sVkernel-arch
p1189
Vx86
p1190
ss(Vdescription
p1191
NVrt
p1192
tp1193
(dp1194
Vparts
p1195
(lp1196
Vrt
p1197
asVpart-long-rt
p1198
VThis kernel includes the PREEMPT_RT realtime patch set.
p1199
sVpart-short-rt
p1200
VPREEMPT_RT
p1201
ss(Vabi
p1202
Ng1192
tp1203
(dp1204
Vignore-changes
p1205
(lp1206
V*
p1207
ass(Vversion
p1208
tp1209
(dp1210
Vupstream
p1211
V4.9
p1212
sVsource
p1213
V4.9.110-1
p1214
sVabiname
p1215
V4.9.0-7
p1216
sVabiname_base
p1217
V4.9.0
p1218
ss.