cdebian_linux.config
ConfigCore
p0
(tRp1
(Vabi
p2
tp3
(dp4
Vabiname
p5
V9
p6
sVignore-changes
p7
(lp8
V__cpuhp_*
p9
aVbpf_analyzer
p10
aVcxl_*
p11
aVinet_frag_*
p12
aVinet_frags_*
p13
aVip6_expire_frag_queue
p14
aVip6_frag_*
p15
aVmm_iommu_*
p16
aVmv_mbus_*
p17
aVregister_cxl_calls
p18
aVregister_key_type
p19
aVtpm_*
p20
aVtpmm_chip_alloc
p21
aVunregister_cxl_calls
p22
aVmodule:drivers/block/loop
p23
aVmodule:drivers/crypto/ccp/*
p24
aVmodule:drivers/hv/*
p25
aVmodule:drivers/iio/common/hid-sensors/*
p26
aVmodule:drivers/iio/common/st_sensors/**
p27
aVmodule:drivers/net/ethernet/**
p28
aVmodule:drivers/net/wireless/**
p29
aVmodule:drivers/nfc/**
p30
aVmodule:drivers/nvdimm/*
p31
aVmodule:drivers/nvme/**
p32
aVmodule:drivers/power/supply/bq27xxx_battery
p33
aVmodule:drivers/s390/net/qeth
p34
aVmodule:drivers/s390/net/qeth*
p35
aVmodule:drivers/scsi/cxgbi/*
p36
aVmodule:drivers/scsi/esp_scsi
p37
aVmodule:drivers/scsi/libiscs*
p38
aVmodule:drivers/scsi/qla2xxx/qla2xxx
p39
aVmodule:drivers/scsi/ufs/*
p40
aVmodule:drivers/target/**
p41
aVmodule:drivers/usb/chipidea/**
p42
aVmodule:drivers/usb/gadget/**
p43
aVmodule:drivers/usb/host/**
p44
aVmodule:drivers/usb/musb/**
p45
aVmodule:fs/nfs/nfs
p46
aVmodule:net/ceph/libceph
p47
aVmodule:net/nfc/hci/hci
p48
aVmodule:net/l2tp/**
p49
aVmodule:net/vmw_vsock/*
p50
aVmodule:sound/firewire/snd-firewire-lib
p51
aVmodule:sound/pci/hda/*
p52
aVbtree_*
p53
aVvisitor*
p54
aVcan_rx_register
p55
aVip6_xmit
p56
aVmodule:net/dccp/dccp
p57
aVmodule:net/rds/rds
p58
aVdevfreq_*
p59
aVdevm_devfreq_*
p60
aVupdate_devfreq
p61
aVmodule:drivers/infiniband/**
p62
aVacpi_ec_add_query_handler
p63
aVacpi_ec_remove_query_handler
p64
aVfirst_ec
p65
aVdebugfs_create_automount
p66
aV__gfn_*
p67
aV__kvm_*
p68
aVgfn_*
p69
aVkvm_*
p70
aVmark_page_dirty
p71
aVvcpu_*
p72
aVmodule:arch/powerpc/kvm/*
p73
aVmodule:arch/s390/kvm/*
p74
aVmodule:arch/x86/kvm/*
p75
aV*_xen_*
p76
aV*_xenballooned_*
p77
aV*_xenbus_*
p78
aV*_xenstore_*
p79
aVgnttab_*
p80
aVHYPERVISOR_*
p81
aVx86_hyper_xen
p82
aVxen_*
p83
aVxenbus_*
p84
aVreturn_address
p85
aVbr_netfilter_enable
p86
ass(Vbase
p87
tp88
(dp89
Varches
p90
(lp91
Valpha
p92
aVamd64
p93
aVarm64
p94
aVarmel
p95
aVarmhf
p96
aVhppa
p97
aVi386
p98
aVm68k
p99
aVmips
p100
aVmipsel
p101
aVmipsn32
p102
aVmipsn32el
p103
aVmips64
p104
aVmips64el
p105
aVpowerpc
p106
aVpowerpcspe
p107
aVppc64
p108
aVppc64el
p109
aVs390
p110
aVs390x
p111
aVsh3
p112
aVsh4
p113
aVsparc
p114
aVsparc64
p115
aVtilegx
p116
aVx32
p117
asVcompiler
p118
Vgcc-6
p119
sVfeaturesets
p120
(lp121
Vnone
p122
aVrt
p123
ass(Vbuild
p124
tp125
(dp126
Vdebug-info
p127
I01
sVsigned-modules
p128
I00
ss(Vbase
p129
NVrt
p130
tp131
(dp132
Venabled
p133
I01
ss(Vdescription
p134
tp135
(dp136
Vpart-long-up
p137
VThis kernel is not suitable for SMP (multi-processor,\u000amulti-core or hyper-threaded) systems.
p138
sVpart-long-xen
p139
VThis kernel also runs on a Xen hypervisor.\u000aIt supports both privileged (dom0) and unprivileged (domU) operation.
p140
ss(Vimage
p141
tp142
(dp143
Vinitramfs-generators
p144
(lp145
Vinitramfs-tools
p146
aVinitramfs-fallback
p147
ass(Vrelations
p148
tp149
(dp150
Vgcc-6
p151
Vgcc-6 <!stage1 !cross>, gcc-6-@gnu-type-package@ <!stage1 cross>
p152
sVinitramfs-fallback
p153
Vlinux-initramfs-tool
p154
sVinitramfs-tools
p155
Vinitramfs-tools (>= 0.120+deb8u2)
p156
ss(Vbase
p157
Valpha
p158
tp159
(dp160
Vkernel-arch
p161
Valpha
p162
sVfeaturesets
p163
(lp164
Vnone
p165
ass(Vbuild
p166
g158
tp167
(dp168
Vimage-file
p169
Varch/alpha/boot/vmlinux.gz
p170
sVsigned-modules
p171
I00
ss(Vimage
p172
g158
tp173
(dp174
Vsuggests
p175
Vaboot, fdutils
p176
sVinstall-stem
p177
Vvmlinuz
p178
ss(Vdescription
p179
g158
NValpha-generic
p180
tp181
(dp182
Vhardware
p183
VAlpha
p184
sVhardware-long
p185
VDEC Alpha systems with extended kernel start address (Wildfire, Titan, Marvel)
p186
ss(Vdescription
p187
g158
NValpha-smp
p188
tp189
(dp190
Vhardware
p191
VAlpha SMP
p192
sVhardware-long
p193
VDEC Alpha SMP systems with extended kernel start address (Wildfire, Titan, Marvel)
p194
ss(Vbase
p195
g158
g165
tp196
(dp197
Vflavours
p198
(lp199
Valpha-generic
p200
aValpha-smp
p201
asVimplicit-flavour
p202
I01
ss(Vbase
p203
Vamd64
p204
tp205
(dp206
Vfeaturesets
p207
(lp208
Vnone
p209
aVrt
p210
asVkernel-arch
p211
Vx86
p212
ss(Vbuild
p213
g204
tp214
(dp215
Vdebug-info
p216
I01
sVimage-file
p217
Varch/x86/boot/bzImage
p218
sVvdso
p219
I01
ss(Vimage
p220
g204
tp221
(dp222
Vbootloaders
p223
(lp224
Vgrub-pc
p225
aVgrub-efi-amd64
p226
aVextlinux
p227
asVinstall-stem
p228
Vvmlinuz
p229
sVbreaks
p230
Vxserver-xorg-input-vmmouse (<< 1:13.0.99)
p231
ss(Vrelations
p232
g204
tp233
(dp234
Vgcc-6
p235
Vgcc-6 (>= 6.3.0-18+deb9u1~) <!stage1 !cross>, gcc-6-@gnu-type-package@ (>= 6.3.0-18+deb9u1~) <!stage1 cross>
p236
sVheaders%gcc-6
p237
Vlinux-compiler-gcc-6-x86 (>= 4.9.82-1+deb9u1~)
p238
ss(Vdescription
p239
g204
NVamd64
p240
tp241
(dp242
Vhardware
p243
V64-bit PCs
p244
sVhardware-long
p245
VPCs with AMD64, Intel 64 or VIA Nano processors
p246
ss(Vbase
p247
g204
Vnone
p248
tp249
(dp250
Vflavours
p251
(lp252
Vamd64
p253
ass(Vdescription
p254
g204
g248
Vamd64
p255
tp256
(dp257
Vparts
p258
(lp259
Vxen
p260
ass(Vbase
p261
g204
Vrt
p262
tp263
(dp264
Vflavours
p265
(lp266
Vamd64
p267
ass(Vbase
p268
Varm64
p269
tp270
(dp271
Vkernel-arch
p272
Varm64
p273
sVfeaturesets
p274
(lp275
Vnone
p276
ass(Vbuild
p277
g269
tp278
(dp279
Vdebug-info
p280
I01
sVimage-file
p281
Varch/arm64/boot/Image
p282
sVvdso
p283
I01
ss(Vimage
p284
g269
tp285
(dp286
Vinstall-stem
p287
Vvmlinuz
p288
sVbreaks
p289
Vlibmozjs185-1.0, libmozjs-24-0 (<< 24.2.0-5.1~)
p290
ss(Vdescription
p291
g269
NVarm64
p292
tp293
(dp294
Vhardware
p295
V64-bit ARMv8 machines
p296
ss(Vimage
p297
g269
NVarm64
p298
tp299
(dp300
s(Vbase
p301
g269
Vnone
p302
tp303
(dp304
Vflavours
p305
(lp306
Varm64
p307
ass(Vbase
p308
Varmel
p309
tp310
(dp311
Vkernel-arch
p312
Varm
p313
sg163
(lp314
g165
ass(Vbuild
p315
g309
tp316
(dp317
Vimage-file
p318
Varch/arm/boot/zImage
p319
sVsigned-modules
p320
I00
ss(Vimage
p321
g309
tp322
(dp323
Vinstall-stem
p324
Vvmlinuz
p325
ss(Vrelations
p326
g309
tp327
(dp328
Vheaders%gcc-6
p329
Vlinux-compiler-gcc-6-arm
p330
ss(Vdescription
p331
g309
NVmarvell
p332
tp333
(dp334
Vhardware
p335
VMarvell Kirkwood/Orion
p336
sVhardware-long
p337
VMarvell Kirkwood based systems (SheevaPlug, QNAP TS-119/TS-219, etc)\u000aand Orion 5181, 5182 and 5281 based systems (QNAP TS-109/TS-209, etc)
p338
ss(Vimage
p339
g309
NVmarvell
p340
tp341
(dp342
Vrecommends
p343
Vu-boot-tools
p344
sVcheck-size
p345
I2097080
sVcheck-size-with-dtb
p346
I01
sVbreaks
p347
Vflash-kernel (<< 3.57~)
p348
ss(g195
g309
g165
tp349
(dp350
g198
(lp351
Vmarvell
p352
asg202
I01
ss(Vbase
p353
Varmhf
p354
tp355
(dp356
Vkernel-arch
p357
Varm
p358
sg163
(lp359
g165
ass(Vbuild
p360
g354
tp361
(dp362
Vimage-file
p363
Varch/arm/boot/zImage
p364
sVvdso
p365
I01
ss(Vimage
p366
g354
tp367
(dp368
Vinstall-stem
p369
Vvmlinuz
p370
ss(Vrelations
p371
g354
tp372
(dp373
Vheaders%gcc-6
p374
Vlinux-compiler-gcc-6-arm
p375
ss(Vdescription
p376
g354
NVarmmp
p377
tp378
(dp379
Vhardware
p380
VARMv7 multiplatform compatible SoCs
p381
sVhardware-long
p382
VARMv7 multiplatform kernel. See\u000ahttps://wiki.debian.org/DebianKernel/ARMMP for details of supported\u000aplatforms
p383
ss(Vdescription
p384
g354
NVarmmp-lpae
p385
tp386
(dp387
Vhardware
p388
VARMv7 multiplatform compatible SoCs supporting LPAE
p389
sVhardware-long
p390
VARMv7 multiplatform kernel supporting LPAE. See\u000ahttps://wiki.debian.org/DebianKernel/ARMMP for details of supported\u000aplatforms.
p391
ss(g195
g354
g165
tp392
(dp393
g198
(lp394
Varmmp
p395
aVarmmp-lpae
p396
asg202
I01
ss(Vbase
p397
Vhppa
p398
tp399
(dp400
Vkernel-arch
p401
Vparisc
p402
sg163
(lp403
g165
ass(Vbuild
p404
g398
tp405
(dp406
Vimage-file
p407
Vvmlinux
p408
sVsigned-modules
p409
I00
ss(Vimage
p410
g398
tp411
(dp412
Vsuggests
p413
Vpalo
p414
sVinstall-stem
p415
Vvmlinux
p416
ss(Vdescription
p417
g398
NVparisc
p418
tp419
(dp420
Vhardware
p421
V32-bit PA-RISC
p422
sVhardware-long
p423
VHP PA-RISC 32-bit systems with max 4 GB RAM
p424
ss(Vbase
p425
g398
NVparisc64-smp
p426
tp427
(dp428
Vcflags
p429
V-fno-cse-follow-jumps
p430
sVoverride-host-type
p431
Vhppa64-linux-gnu
p432
ss(Vdescription
p433
g398
NVparisc64-smp
p434
tp435
(dp436
Vhardware
p437
Vmultiprocessor 64-bit PA-RISC
p438
sVhardware-long
p439
VHP PA-RISC 64-bit SMP systems with support for more than 4 GB RAM
p440
ss(Vrelations
p441
g398
tp442
(dp443
Vgcc-6
p444
Vgcc-6 <!stage1 !cross>, binutils-hppa64-linux-gnu <!stage1 !cross>, gcc-6-hppa64-linux-gnu <!stage1 !cross>, gcc-6-hppa-linux-gnu <!stage1 cross>, binutils-hppa64-linux-gnu <!stage1 cross>, gcc-6-hppa64-linux-gnu <!stage1 cross>
p445
ss(g195
g398
g165
tp446
(dp447
g198
(lp448
Vparisc
p449
aVparisc64-smp
p450
asg202
I01
ss(Vbase
p451
Vi386
p452
tp453
(dp454
Vfeaturesets
p455
(lp456
Vnone
p457
aVrt
p458
asVkernel-arch
p459
Vx86
p460
ss(Vbuild
p461
g452
tp462
(dp463
Vimage-file
p464
Varch/x86/boot/bzImage
p465
sVvdso
p466
I01
ss(Vdescription
p467
g452
tp468
(dp469
Vpart-long-pae
p470
VThis kernel requires PAE (Physical Address Extension).\u000aThis feature is supported by the Intel Pentium Pro/II/III/4/4M/D, Xeon,\u000aCore and Atom; AMD Geode NX, Athlon (K7), Duron, Opteron, Sempron,\u000aTurion or Phenom; Transmeta Efficeon; VIA C7; and some other processors.
p471
ss(Vimage
p472
g452
tp473
(dp474
Vbootloaders
p475
(lp476
Vgrub-pc
p477
aVextlinux
p478
asVinstall-stem
p479
Vvmlinuz
p480
sVbreaks
p481
Vxserver-xorg-input-vmmouse (<< 1:13.0.99)
p482
ss(Vrelations
p483
g452
tp484
(dp485
Vgcc-6
p486
Vgcc-6 (>= 6.3.0-18+deb9u1~) <!stage1 !cross>, gcc-6-@gnu-type-package@ (>= 6.3.0-18+deb9u1~) <!stage1 cross>
p487
sVheaders%gcc-6
p488
Vlinux-compiler-gcc-6-x86 (>= 4.9.82-1+deb9u1~)
p489
ss(Vdescription
p490
g452
NV686
p491
tp492
(dp493
Vhardware
p494
Volder PCs
p495
sVhardware-long
p496
VPCs with one or more processors not supporting PAE
p497
ss(Vbuild
p498
g452
NV686-pae
p499
tp500
(dp501
Vdebug-info
p502
I01
ss(Vdescription
p503
g452
NV686-pae
p504
tp505
(dp506
Vhardware
p507
Vmodern PCs
p508
sVhardware-long
p509
VPCs with one or more processors supporting PAE
p510
sVparts
p511
(lp512
Vpae
p513
ass(Vbase
p514
g452
Vnone
p515
tp516
(dp517
Vflavours
p518
(lp519
V686
p520
aV686-pae
p521
ass(Vdescription
p522
g452
g515
V686-pae
p523
tp524
(dp525
Vparts
p526
(lp527
Vxen
p528
ass(Vbase
p529
g452
Vrt
p530
tp531
(dp532
Vflavours
p533
(lp534
V686-pae
p535
ass(Vbase
p536
Vm68k
p537
tp538
(dp539
Vcflags
p540
V-ffreestanding
p541
sVkernel-arch
p542
Vm68k
p543
sg163
(lp544
g165
ass(Vbuild
p545
g537
tp546
(dp547
Vimage-file
p548
Vvmlinux.gz
p549
sVsigned-modules
p550
I00
ss(Vimage
p551
g537
tp552
(dp553
Vsuggests
p554
Vvmelilo, fdutils
p555
sVinstall-stem
p556
Vvmlinuz
p557
ss(Vdescription
p558
g537
NVm68k
p559
tp560
(dp561
Vhardware
p562
VMotorola MC68020+ family
p563
ss(g195
g537
g165
tp564
(dp565
g198
(lp566
Vm68k
p567
asg202
I01
ss(Vbase
p568
Vmips
p569
tp570
(dp571
Vkernel-arch
p572
Vmips
p573
sg163
(lp574
g165
ass(Vbuild
p575
g569
tp576
(dp577
Vimage-file
p578
Vvmlinux
p579
sVsigned-modules
p580
I00
ss(Vimage
p581
g569
tp582
(dp583
Vinstall-stem
p584
Vvmlinux
p585
ss(Vdescription
p586
g569
NV4kc-malta
p587
tp588
(dp589
Vhardware
p590
VMIPS Malta
p591
sVhardware-long
p592
VMIPS Malta boards
p593
ss(Vimage
p594
g569
NV4kc-malta
p595
tp596
(dp597
Vconfigs
p598
(lp599
Vkernelarch-mips/config.malta
p600
aVkernelarch-mips/config.mips32r2
p601
ass(Vdescription
p602
g569
NV5kc-malta
p603
tp604
(dp605
Vhardware
p606
VMIPS Malta (64-bit)
p607
sVhardware-long
p608
VMIPS Malta boards (64-bit)
p609
ss(Vimage
p610
g569
NV5kc-malta
p611
tp612
(dp613
Vconfigs
p614
(lp615
Vkernelarch-mips/config.malta
p616
aVkernelarch-mips/config.mips64r2
p617
ass(Vdescription
p618
g569
NVocteon
p619
tp620
(dp621
Vhardware
p622
VOcteon
p623
sVhardware-long
p624
VCavium Networks Octeon
p625
ss(Vimage
p626
g569
NVocteon
p627
tp628
(dp629
Vconfigs
p630
(lp631
Vkernelarch-mips/config.octeon
p632
ass(g195
g569
g165
tp633
(dp634
g198
(lp635
V4kc-malta
p636
aV5kc-malta
p637
aVocteon
p638
asg202
I01
ss(Vbase
p639
Vmipsel
p640
tp641
(dp642
Vkernel-arch
p643
Vmips
p644
sg163
(lp645
g165
ass(Vbuild
p646
g640
tp647
(dp648
Vimage-file
p649
Vvmlinux
p650
sVsigned-modules
p651
I00
ss(Vimage
p652
g640
tp653
(dp654
Vinstall-stem
p655
Vvmlinux
p656
ss(Vdescription
p657
g640
NV4kc-malta
p658
tp659
(dp660
Vhardware
p661
VMIPS Malta
p662
sVhardware-long
p663
VMIPS Malta boards
p664
ss(Vimage
p665
g640
NV4kc-malta
p666
tp667
(dp668
Vconfigs
p669
(lp670
Vkernelarch-mips/config.malta
p671
aVkernelarch-mips/config.mips32r2
p672
ass(Vdescription
p673
g640
NV5kc-malta
p674
tp675
(dp676
Vhardware
p677
VMIPS Malta (64-bit)
p678
sVhardware-long
p679
VMIPS Malta boards (64-bit)
p680
ss(Vimage
p681
g640
NV5kc-malta
p682
tp683
(dp684
Vconfigs
p685
(lp686
Vkernelarch-mips/config.malta
p687
aVkernelarch-mips/config.mips64r2
p688
ass(Vdescription
p689
g640
NVloongson-3
p690
tp691
(dp692
Vhardware
p693
VLoongson 3A/3B
p694
sVhardware-long
p695
VLoongson 3A or 3B based systems (e.g. from Loongson or Lemote)
p696
ss(Vimage
p697
g640
NVloongson-3
p698
tp699
(dp700
Vconfigs
p701
(lp702
Vkernelarch-mips/config.loongson-3
p703
ass(Vdescription
p704
g640
NVocteon
p705
tp706
(dp707
Vhardware
p708
VOcteon
p709
sVhardware-long
p710
VCavium Networks Octeon
p711
ss(Vimage
p712
g640
NVocteon
p713
tp714
(dp715
Vconfigs
p716
(lp717
Vkernelarch-mips/config.octeon
p718
ass(g195
g640
g165
tp719
(dp720
g198
(lp721
V4kc-malta
p722
aV5kc-malta
p723
aVloongson-3
p724
aVocteon
p725
asg202
I01
ss(Vbase
p726
Vmipsn32
p727
tp728
(dp729
Vkernel-arch
p730
Vmips
p731
sVfeaturesets
p732
(lp733
ss(Vbase
p734
Vmipsn32el
p735
tp736
(dp737
Vkernel-arch
p738
Vmips
p739
sVfeaturesets
p740
(lp741
ss(Vbase
p742
Vmips64
p743
tp744
(dp745
Vkernel-arch
p746
Vmips
p747
sg163
(lp748
g165
ass(Vbuild
p749
g743
tp750
(dp751
Vimage-file
p752
Vvmlinux
p753
sVsigned-modules
p754
I00
ss(Vimage
p755
g743
tp756
(dp757
Vinstall-stem
p758
Vvmlinux
p759
ss(Vdescription
p760
g743
NV5kc-malta
p761
tp762
(dp763
Vhardware
p764
VMIPS Malta
p765
sVhardware-long
p766
VMIPS Malta boards
p767
ss(Vimage
p768
g743
NV5kc-malta
p769
tp770
(dp771
Vconfigs
p772
(lp773
Vkernelarch-mips/config.malta
p774
aVkernelarch-mips/config.mips64r2
p775
ass(Vdescription
p776
g743
NVocteon
p777
tp778
(dp779
Vhardware
p780
VOcteon
p781
sVhardware-long
p782
VCavium Networks Octeon
p783
ss(Vimage
p784
g743
NVocteon
p785
tp786
(dp787
Vconfigs
p788
(lp789
Vkernelarch-mips/config.octeon
p790
ass(g195
g743
g165
tp791
(dp792
g198
(lp793
V5kc-malta
p794
aVocteon
p795
asg202
I01
ss(Vbase
p796
Vmips64el
p797
tp798
(dp799
Vkernel-arch
p800
Vmips
p801
sg163
(lp802
g165
ass(Vbuild
p803
g797
tp804
(dp805
Vimage-file
p806
Vvmlinux
p807
sVsigned-modules
p808
I00
ss(Vimage
p809
g797
tp810
(dp811
Vinstall-stem
p812
Vvmlinux
p813
ss(Vdescription
p814
g797
NV5kc-malta
p815
tp816
(dp817
Vhardware
p818
VMIPS Malta
p819
sVhardware-long
p820
VMIPS Malta boards
p821
ss(Vimage
p822
g797
NV5kc-malta
p823
tp824
(dp825
Vconfigs
p826
(lp827
Vkernelarch-mips/config.malta
p828
aVkernelarch-mips/config.mips64r2
p829
ass(Vdescription
p830
g797
NVloongson-3
p831
tp832
(dp833
Vhardware
p834
VLoongson 3A/3B
p835
sVhardware-long
p836
VLoongson 3A or 3B based systems (e.g. from Loongson or Lemote)
p837
ss(Vimage
p838
g797
NVloongson-3
p839
tp840
(dp841
Vconfigs
p842
(lp843
Vkernelarch-mips/config.loongson-3
p844
ass(Vdescription
p845
g797
NVocteon
p846
tp847
(dp848
Vhardware
p849
VOcteon
p850
sVhardware-long
p851
VCavium Networks Octeon
p852
ss(Vimage
p853
g797
NVocteon
p854
tp855
(dp856
Vconfigs
p857
(lp858
Vkernelarch-mips/config.octeon
p859
ass(g195
g797
g165
tp860
(dp861
g198
(lp862
V5kc-malta
p863
aVloongson-3
p864
aVocteon
p865
asg202
I01
ss(Vbase
p866
Vpowerpc
p867
tp868
(dp869
Vkernel-arch
p870
Vpowerpc
p871
sg163
(lp872
g165
ass(Vbuild
p873
g867
tp874
(dp875
Vimage-file
p876
Vvmlinux
p877
sVvdso
p878
I01
ss(Vimage
p879
g867
tp880
(dp881
Vconfigs
p882
(lp883
sVsuggests
p884
Vmkvmlinuz
p885
sVinstall-stem
p886
Vvmlinux
p887
ss(Vdescription
p888
g867
NVpowerpc
p889
tp890
(dp891
Vhardware
p892
Vuniprocessor 32-bit PowerPC
p893
ss(Vdescription
p894
g867
NVpowerpc-smp
p895
tp896
(dp897
Vhardware
p898
Vmultiprocessor 32-bit PowerPC
p899
ss(Vimage
p900
g867
NVpowerpc-smp
p901
tp902
(dp903
Vconfigs
p904
(lp905
Vpowerpc/config.powerpc
p906
aVpowerpc/config.powerpc-smp
p907
ass(Vdescription
p908
g867
NVpowerpc64
p909
tp910
(dp911
Vhardware
p912
V64-bit PowerPC
p913
ss(Vimage
p914
g867
NVpowerpc64
p915
tp916
(dp917
Vconfigs
p918
(lp919
Vkernelarch-powerpc/config-arch-64
p920
aVkernelarch-powerpc/config-arch-64-be
p921
ass(g195
g867
g165
tp922
(dp923
g198
(lp924
Vpowerpc
p925
aVpowerpc-smp
p926
aVpowerpc64
p927
asg202
I01
ss(Vbase
p928
Vpowerpcspe
p929
tp930
(dp931
Vkernel-arch
p932
Vpowerpc
p933
sg163
(lp934
g165
ass(Vbuild
p935
g929
tp936
(dp937
Vimage-file
p938
Vvmlinux
p939
sVsigned-modules
p940
I00
sVvdso
p941
I01
ss(Vimage
p942
g929
tp943
(dp944
Vsuggests
p945
Vmkvmlinuz
p946
sVinstall-stem
p947
Vvmlinux
p948
ss(Vdescription
p949
g929
tp950
(dp951
Vhardware
p952
V32-bit PowerPC with SPE (instead of AltiVec) with SMP support
p953
ss(g195
g929
g165
tp954
(dp955
g198
(lp956
Vpowerpcspe
p957
asg202
I01
ss(Vbase
p958
Vppc64
p959
tp960
(dp961
Vkernel-arch
p962
Vpowerpc
p963
sg163
(lp964
g165
ass(Vbuild
p965
g959
tp966
(dp967
Vimage-file
p968
Vvmlinux
p969
sVsigned-modules
p970
I00
sVvdso
p971
I01
ss(Vimage
p972
g959
tp973
(dp974
Vconfigs
p975
(lp976
sVsuggests
p977
Vmkvmlinuz
p978
sVinstall-stem
p979
Vvmlinux
p980
ss(Vdescription
p981
g959
NVpowerpc64
p982
tp983
(dp984
Vhardware
p985
V64-bit PowerPC
p986
ss(Vimage
p987
g959
NVpowerpc64
p988
tp989
(dp990
Vconfigs
p991
(lp992
Vkernelarch-powerpc/config-arch-64
p993
aVkernelarch-powerpc/config-arch-64-be
p994
ass(g195
g959
g165
tp995
(dp996
g198
(lp997
Vpowerpc64
p998
asg202
I01
ss(Vbase
p999
Vppc64el
p1000
tp1001
(dp1002
Vkernel-arch
p1003
Vpowerpc
p1004
sg163
(lp1005
g165
ass(Vbuild
p1006
g1000
tp1007
(dp1008
Vimage-file
p1009
Vvmlinux
p1010
sVvdso
p1011
I01
ss(Vimage
p1012
g1000
tp1013
(dp1014
Vconfigs
p1015
(lp1016
sVsuggests
p1017
Vmkvmlinuz
p1018
sVinstall-stem
p1019
Vvmlinux
p1020
ss(Vdescription
p1021
g1000
NVpowerpc64le
p1022
tp1023
(dp1024
Vhardware
p1025
VLittle-endian 64-bit PowerPC
p1026
ss(Vimage
p1027
g1000
NVpowerpc64le
p1028
tp1029
(dp1030
Vconfigs
p1031
(lp1032
Vkernelarch-powerpc/config-arch-64
p1033
aVkernelarch-powerpc/config-arch-64-le
p1034
ass(g195
g1000
g165
tp1035
(dp1036
g198
(lp1037
Vpowerpc64le
p1038
asg202
I01
ss(Vbase
p1039
Vs390
p1040
tp1041
(dp1042
Vkernel-arch
p1043
Vs390
p1044
sVfeaturesets
p1045
(lp1046
ss(Vbase
p1047
Vs390x
p1048
tp1049
(dp1050
Vkernel-arch
p1051
Vs390
p1052
sg163
(lp1053
g165
ass(Vbuild
p1054
g1048
tp1055
(dp1056
Vimage-file
p1057
Varch/s390/boot/image
p1058
sVvdso
p1059
I01
ss(Vimage
p1060
g1048
tp1061
(dp1062
Vbootloaders
p1063
(lp1064
Vs390-tools
p1065
asVinstall-stem
p1066
Vvmlinuz
p1067
ss(Vrelations
p1068
g1048
tp1069
(dp1070
Vheaders%gcc-6
p1071
Vlinux-compiler-gcc-6-s390
p1072
ss(Vbuild
p1073
g1048
NVs390x
p1074
tp1075
(dp1076
Vdebug-info
p1077
I01
ss(Vdescription
p1078
g1048
NVs390x
p1079
tp1080
(dp1081
Vhardware
p1082
VIBM zSeries
p1083
ss(g195
g1048
g165
tp1084
(dp1085
g198
(lp1086
Vs390x
p1087
asg202
I01
ss(Vbase
p1088
Vsh3
p1089
tp1090
(dp1091
Vkernel-arch
p1092
Vsh
p1093
sVfeaturesets
p1094
(lp1095
ss(Vbase
p1096
Vsh4
p1097
tp1098
(dp1099
Vkernel-arch
p1100
Vsh
p1101
sg163
(lp1102
g165
ass(Vbuild
p1103
g1097
tp1104
(dp1105
Vimage-file
p1106
Varch/sh/boot/zImage
p1107
sVsigned-modules
p1108
I00
ss(Vimage
p1109
g1097
tp1110
(dp1111
Vinstall-stem
p1112
Vvmlinuz
p1113
ss(Vdescription
p1114
g1097
NVsh7751r
p1115
tp1116
(dp1117
Vhardware
p1118
Vsh7751r
p1119
sVhardware-long
p1120
VRenesas SH7751R R2D plus board
p1121
ss(Vdescription
p1122
g1097
NVsh7785lcr
p1123
tp1124
(dp1125
Vhardware
p1126
Vsh7785lcr
p1127
sVhardware-long
p1128
VRenesas SH7785 reference board
p1129
ss(Vimage
p1130
g1097
NVsh7785lcr
p1131
tp1132
(dp1133
Vrecommends
p1134
Vu-boot-tools
p1135
sVcheck-size
p1136
I4194304
ss(g195
g1097
g165
tp1137
(dp1138
g198
(lp1139
Vsh7751r
p1140
aVsh7785lcr
p1141
asg202
I01
ss(Vbase
p1142
Vsparc
p1143
tp1144
(dp1145
Vkernel-arch
p1146
Vsparc
p1147
sVfeaturesets
p1148
(lp1149
ss(Vbase
p1150
Vsparc64
p1151
tp1152
(dp1153
Vkernel-arch
p1154
Vsparc
p1155
sg163
(lp1156
g165
ass(Vbuild
p1157
g1151
tp1158
(dp1159
Vimage-file
p1160
Varch/sparc/boot/zImage
p1161
sVsigned-modules
p1162
I00
ss(Vimage
p1163
g1151
tp1164
(dp1165
Vconfigs
p1166
(lp1167
sVsuggests
p1168
Vsilo, fdutils
p1169
sVinstall-stem
p1170
Vvmlinuz
p1171
ss(Vdescription
p1172
g1151
NVsparc64
p1173
tp1174
(dp1175
Vhardware
p1176
Vuniprocessor 64-bit UltraSPARC
p1177
ss(Vimage
p1178
g1151
NVsparc64
p1179
tp1180
(dp1181
Vconfigs
p1182
(lp1183
Vkernelarch-sparc/config-up
p1184
ass(Vdescription
p1185
g1151
NVsparc64-smp
p1186
tp1187
(dp1188
Vhardware
p1189
Vmultiprocessor 64-bit UltraSPARC
p1190
ss(Vimage
p1191
g1151
NVsparc64-smp
p1192
tp1193
(dp1194
Vconfigs
p1195
(lp1196
Vkernelarch-sparc/config-smp
p1197
ass(g195
g1151
g165
tp1198
(dp1199
g198
(lp1200
Vsparc64
p1201
aVsparc64-smp
p1202
asg202
I01
ss(Vbase
p1203
Vtilegx
p1204
tp1205
(dp1206
Vkernel-arch
p1207
Vtile
p1208
sVfeaturesets
p1209
(lp1210
ss(Vbase
p1211
Vx32
p1212
tp1213
(dp1214
Vkernel-arch
p1215
Vx86
p1216
sVfeaturesets
p1217
(lp1218
ss(Vabi
p1219
NVrt
p1220
tp1221
(dp1222
Vignore-changes
p1223
(lp1224
V*
p1225
ass(Vdescription
p1226
Ng1220
tp1227
(dp1228
Vpart-long-rt
p1229
VThis kernel includes the PREEMPT_RT realtime patch set.
p1230
sVpart-short-rt
p1231
VPREEMPT_RT
p1232
sVparts
p1233
(lp1234
Vrt
p1235
ass(Vversion
p1236
tp1237
(dp1238
Vsource
p1239
V4.9.168-1
p1240
sVupstream
p1241
V4.9
p1242
sVabiname_base
p1243
V4.9.0
p1244
sVabiname
p1245
V4.9.0-9
p1246
ss.