cdebian_linux.config
ConfigCore
p0
(tRp1
(Vbase
p2
tp3
(dp4
Varches
p5
(lp6
Valpha
p7
aVamd64
p8
aVarm64
p9
aVarmel
p10
aVarmhf
p11
aVhppa
p12
aVi386
p13
aVm68k
p14
aVmips
p15
aVmipsel
p16
aVmipsn32
p17
aVmipsn32el
p18
aVmips64
p19
aVmips64el
p20
aVpowerpc
p21
aVpowerpcspe
p22
aVppc64
p23
aVppc64el
p24
aVs390
p25
aVs390x
p26
aVsh3
p27
aVsh4
p28
aVsparc
p29
aVsparc64
p30
aVtilegx
p31
aVx32
p32
asVfeaturesets
p33
(lp34
Vnone
p35
aVrt
p36
asVcompiler
p37
Vgcc-6
p38
ss(Vbuild
p39
tp40
(dp41
Vsigned-modules
p42
I00
sVdebug-info
p43
I01
ss(Vbase
p44
NVrt
p45
tp46
(dp47
Venabled
p48
I01
ss(Vdescription
p49
tp50
(dp51
Vpart-long-up
p52
VThis kernel is not suitable for SMP (multi-processor,\u000amulti-core or hyper-threaded) systems.
p53
sVpart-long-xen
p54
VThis kernel also runs on a Xen hypervisor.\u000aIt supports both privileged (dom0) and unprivileged (domU) operation.
p55
ss(Vrelations
p56
tp57
(dp58
Vinitramfs-tools
p59
Vinitramfs-tools (>= 0.120+deb8u2)
p60
sVgcc-6
p61
Vgcc-6 <!stage1 !cross>, gcc-6-@gnu-type-package@ <!stage1 cross>
p62
sVinitramfs-fallback
p63
Vlinux-initramfs-tool
p64
ss(Vimage
p65
tp66
(dp67
Vinitramfs-generators
p68
(lp69
Vinitramfs-tools
p70
aVinitramfs-fallback
p71
ass(Vabi
p72
tp73
(dp74
Vabiname
p75
V8
p76
sVignore-changes
p77
(lp78
V__cpuhp_*
p79
aVbpf_analyzer
p80
aVcxl_*
p81
aVinet_frag_*
p82
aVinet_frags_*
p83
aVmm_iommu_*
p84
aVmv_mbus_*
p85
aVregister_cxl_calls
p86
aVregister_key_type
p87
aVtpm_*
p88
aVtpmm_chip_alloc
p89
aVunregister_cxl_calls
p90
aVmodule:drivers/block/loop
p91
aVmodule:drivers/crypto/ccp/*
p92
aVmodule:drivers/hv/*
p93
aVmodule:drivers/iio/common/hid-sensors/*
p94
aVmodule:drivers/iio/common/st_sensors/**
p95
aVmodule:drivers/net/wireless/**
p96
aVmodule:drivers/nfc/**
p97
aVmodule:drivers/nvdimm/*
p98
aVmodule:drivers/nvme/**
p99
aVmodule:drivers/power/supply/bq27xxx_battery
p100
aVmodule:drivers/s390/net/qeth
p101
aVmodule:drivers/s390/net/qeth*
p102
aVmodule:drivers/scsi/cxgbi/*
p103
aVmodule:drivers/scsi/libiscs*
p104
aVmodule:drivers/scsi/qla2xxx/qla2xxx
p105
aVmodule:drivers/scsi/ufs/*
p106
aVmodule:drivers/target/**
p107
aVmodule:drivers/usb/chipidea/**
p108
aVmodule:drivers/usb/gadget/**
p109
aVmodule:drivers/usb/host/**
p110
aVmodule:drivers/usb/musb/**
p111
aVmodule:fs/nfs/nfs
p112
aVmodule:net/ceph/libceph
p113
aVmodule:net/nfc/hci/hci
p114
aVmodule:net/l2tp/**
p115
aVmodule:net/vmw_vsock/*
p116
aVmodule:sound/firewire/snd-firewire-lib
p117
aVbtree_*
p118
aVvisitor*
p119
aVcan_rx_register
p120
aVip6_xmit
p121
aVmodule:net/dccp/dccp
p122
aVmodule:net/rds/rds
p123
aVdevfreq_*
p124
aVdevm_devfreq_*
p125
aVupdate_devfreq
p126
aVmodule:drivers/infiniband/**
p127
aVacpi_ec_add_query_handler
p128
aVacpi_ec_remove_query_handler
p129
aVfirst_ec
p130
aVdebugfs_create_automount
p131
aV__gfn_*
p132
aV__kvm_*
p133
aVgfn_*
p134
aVkvm_*
p135
aVmark_page_dirty
p136
aVvcpu_*
p137
aVmodule:arch/powerpc/kvm/*
p138
aVmodule:arch/s390/kvm/*
p139
aVmodule:arch/x86/kvm/*
p140
aV*_xen_*
p141
aV*_xenballooned_*
p142
aV*_xenbus_*
p143
aV*_xenstore_*
p144
aVgnttab_*
p145
aVHYPERVISOR_*
p146
aVx86_hyper_xen
p147
aVxen_*
p148
aVxenbus_*
p149
aVreturn_address
p150
ass(Vbase
p151
Valpha
p152
tp153
(dp154
Vfeaturesets
p155
(lp156
Vnone
p157
asVkernel-arch
p158
Valpha
p159
ss(Vdescription
p160
g152
NValpha-smp
p161
tp162
(dp163
Vhardware
p164
VAlpha SMP
p165
sVhardware-long
p166
VDEC Alpha SMP systems with extended kernel start address (Wildfire, Titan, Marvel)
p167
ss(Vbuild
p168
g152
tp169
(dp170
Vsigned-modules
p171
I00
sVimage-file
p172
Varch/alpha/boot/vmlinux.gz
p173
ss(Vdescription
p174
g152
NValpha-generic
p175
tp176
(dp177
Vhardware
p178
VAlpha
p179
sVhardware-long
p180
VDEC Alpha systems with extended kernel start address (Wildfire, Titan, Marvel)
p181
ss(Vimage
p182
g152
tp183
(dp184
Vsuggests
p185
Vaboot, fdutils
p186
sVinstall-stem
p187
Vvmlinuz
p188
ss(Vbase
p189
g152
g157
tp190
(dp191
Vflavours
p192
(lp193
Valpha-generic
p194
aValpha-smp
p195
asVimplicit-flavour
p196
I01
ss(Vbase
p197
Vamd64
p198
tp199
(dp200
Vfeaturesets
p201
(lp202
Vnone
p203
aVrt
p204
asVkernel-arch
p205
Vx86
p206
ss(Vdescription
p207
g198
NVamd64
p208
tp209
(dp210
Vhardware
p211
V64-bit PCs
p212
sVhardware-long
p213
VPCs with AMD64, Intel 64 or VIA Nano processors
p214
ss(Vbuild
p215
g198
tp216
(dp217
Vvdso
p218
I01
sVimage-file
p219
Varch/x86/boot/bzImage
p220
sVdebug-info
p221
I01
ss(Vrelations
p222
g198
tp223
(dp224
Vheaders%gcc-6
p225
Vlinux-compiler-gcc-6-x86 (>= 4.9.82-1+deb9u1~)
p226
sVgcc-6
p227
Vgcc-6 (>= 6.3.0-18+deb9u1~) <!stage1 !cross>, gcc-6-@gnu-type-package@ (>= 6.3.0-18+deb9u1~) <!stage1 cross>
p228
ss(Vimage
p229
g198
tp230
(dp231
Vbreaks
p232
Vxserver-xorg-input-vmmouse (<< 1:13.0.99)
p233
sVinstall-stem
p234
Vvmlinuz
p235
sVbootloaders
p236
(lp237
Vgrub-pc
p238
aVgrub-efi-amd64
p239
aVextlinux
p240
ass(Vbase
p241
g198
Vnone
p242
tp243
(dp244
Vflavours
p245
(lp246
Vamd64
p247
ass(Vdescription
p248
g198
g242
Vamd64
p249
tp250
(dp251
Vparts
p252
(lp253
Vxen
p254
ass(Vbase
p255
g198
Vrt
p256
tp257
(dp258
Vflavours
p259
(lp260
Vamd64
p261
ass(Vbase
p262
Varm64
p263
tp264
(dp265
Vfeaturesets
p266
(lp267
Vnone
p268
asVkernel-arch
p269
Varm64
p270
ss(Vdescription
p271
g263
NVarm64
p272
tp273
(dp274
Vhardware
p275
V64-bit ARMv8 machines
p276
ss(Vbuild
p277
g263
tp278
(dp279
Vvdso
p280
I01
sVimage-file
p281
Varch/arm64/boot/Image
p282
sVdebug-info
p283
I01
ss(Vimage
p284
g263
NVarm64
p285
tp286
(dp287
s(Vimage
p288
g263
tp289
(dp290
Vbreaks
p291
Vlibmozjs185-1.0, libmozjs-24-0 (<< 24.2.0-5.1~)
p292
sVinstall-stem
p293
Vvmlinuz
p294
ss(Vbase
p295
g263
Vnone
p296
tp297
(dp298
Vflavours
p299
(lp300
Varm64
p301
ass(Vbase
p302
Varmel
p303
tp304
(dp305
g155
(lp306
g157
asVkernel-arch
p307
Varm
p308
ss(Vbuild
p309
g303
tp310
(dp311
Vsigned-modules
p312
I00
sVimage-file
p313
Varch/arm/boot/zImage
p314
ss(Vimage
p315
g303
NVmarvell
p316
tp317
(dp318
Vrecommends
p319
Vu-boot-tools
p320
sVbreaks
p321
Vflash-kernel (<< 3.57~)
p322
sVcheck-size-with-dtb
p323
I01
sVcheck-size
p324
L2097080L
ss(Vdescription
p325
g303
NVmarvell
p326
tp327
(dp328
Vhardware
p329
VMarvell Kirkwood/Orion
p330
sVhardware-long
p331
VMarvell Kirkwood based systems (SheevaPlug, QNAP TS-119/TS-219, etc)\u000aand Orion 5181, 5182 and 5281 based systems (QNAP TS-109/TS-209, etc)
p332
ss(Vrelations
p333
g303
tp334
(dp335
Vheaders%gcc-6
p336
Vlinux-compiler-gcc-6-arm
p337
ss(Vimage
p338
g303
tp339
(dp340
Vinstall-stem
p341
Vvmlinuz
p342
ss(g189
g303
g157
tp343
(dp344
g192
(lp345
Vmarvell
p346
asg196
I01
ss(Vbase
p347
Varmhf
p348
tp349
(dp350
g155
(lp351
g157
asVkernel-arch
p352
Varm
p353
ss(Vdescription
p354
g348
NVarmmp
p355
tp356
(dp357
Vhardware
p358
VARMv7 multiplatform compatible SoCs
p359
sVhardware-long
p360
VARMv7 multiplatform kernel. See\u000ahttps://wiki.debian.org/DebianKernel/ARMMP for details of supported\u000aplatforms
p361
ss(Vbuild
p362
g348
tp363
(dp364
Vvdso
p365
I01
sVimage-file
p366
Varch/arm/boot/zImage
p367
ss(Vdescription
p368
g348
NVarmmp-lpae
p369
tp370
(dp371
Vhardware
p372
VARMv7 multiplatform compatible SoCs supporting LPAE
p373
sVhardware-long
p374
VARMv7 multiplatform kernel supporting LPAE. See\u000ahttps://wiki.debian.org/DebianKernel/ARMMP for details of supported\u000aplatforms.
p375
ss(Vrelations
p376
g348
tp377
(dp378
Vheaders%gcc-6
p379
Vlinux-compiler-gcc-6-arm
p380
ss(Vimage
p381
g348
tp382
(dp383
Vinstall-stem
p384
Vvmlinuz
p385
ss(g189
g348
g157
tp386
(dp387
g192
(lp388
Varmmp
p389
aVarmmp-lpae
p390
asg196
I01
ss(Vbase
p391
Vhppa
p392
tp393
(dp394
g155
(lp395
g157
asVkernel-arch
p396
Vparisc
p397
ss(Vbuild
p398
g392
tp399
(dp400
Vsigned-modules
p401
I00
sVimage-file
p402
Vvmlinux
p403
ss(Vdescription
p404
g392
NVparisc64-smp
p405
tp406
(dp407
Vhardware
p408
Vmultiprocessor 64-bit PA-RISC
p409
sVhardware-long
p410
VHP PA-RISC 64-bit SMP systems with support for more than 4 GB RAM
p411
ss(Vbase
p412
g392
NVparisc64-smp
p413
tp414
(dp415
Vcflags
p416
V-fno-cse-follow-jumps
p417
sVoverride-host-type
p418
Vhppa64-linux-gnu
p419
ss(Vrelations
p420
g392
tp421
(dp422
Vgcc-6
p423
Vgcc-6 <!stage1 !cross>, binutils-hppa64-linux-gnu <!stage1 !cross>, gcc-6-hppa64-linux-gnu <!stage1 !cross>, gcc-6-hppa-linux-gnu <!stage1 cross>, binutils-hppa64-linux-gnu <!stage1 cross>, gcc-6-hppa64-linux-gnu <!stage1 cross>
p424
ss(Vdescription
p425
g392
NVparisc
p426
tp427
(dp428
Vhardware
p429
V32-bit PA-RISC
p430
sVhardware-long
p431
VHP PA-RISC 32-bit systems with max 4 GB RAM
p432
ss(Vimage
p433
g392
tp434
(dp435
Vsuggests
p436
Vpalo
p437
sVinstall-stem
p438
Vvmlinux
p439
ss(g189
g392
g157
tp440
(dp441
g192
(lp442
Vparisc
p443
aVparisc64-smp
p444
asg196
I01
ss(Vbase
p445
Vi386
p446
tp447
(dp448
Vfeaturesets
p449
(lp450
Vnone
p451
aVrt
p452
asVkernel-arch
p453
Vx86
p454
ss(Vbuild
p455
g446
tp456
(dp457
Vvdso
p458
I01
sVimage-file
p459
Varch/x86/boot/bzImage
p460
ss(Vdescription
p461
g446
NV686-pae
p462
tp463
(dp464
Vhardware
p465
Vmodern PCs
p466
sVhardware-long
p467
VPCs with one or more processors supporting PAE
p468
sVparts
p469
(lp470
Vpae
p471
ass(Vdescription
p472
g446
tp473
(dp474
Vpart-long-pae
p475
VThis kernel requires PAE (Physical Address Extension).\u000aThis feature is supported by the Intel Pentium Pro/II/III/4/4M/D, Xeon,\u000aCore and Atom; AMD Geode NX, Athlon (K7), Duron, Opteron, Sempron,\u000aTurion or Phenom; Transmeta Efficeon; VIA C7; and some other processors.
p476
ss(Vbuild
p477
g446
NV686-pae
p478
tp479
(dp480
Vdebug-info
p481
I01
ss(Vdescription
p482
g446
NV686
p483
tp484
(dp485
Vhardware
p486
Volder PCs
p487
sVhardware-long
p488
VPCs with one or more processors not supporting PAE
p489
ss(Vrelations
p490
g446
tp491
(dp492
Vheaders%gcc-6
p493
Vlinux-compiler-gcc-6-x86 (>= 4.9.82-1+deb9u1~)
p494
sVgcc-6
p495
Vgcc-6 (>= 6.3.0-18+deb9u1~) <!stage1 !cross>, gcc-6-@gnu-type-package@ (>= 6.3.0-18+deb9u1~) <!stage1 cross>
p496
ss(Vimage
p497
g446
tp498
(dp499
Vbreaks
p500
Vxserver-xorg-input-vmmouse (<< 1:13.0.99)
p501
sVinstall-stem
p502
Vvmlinuz
p503
sVbootloaders
p504
(lp505
Vgrub-pc
p506
aVextlinux
p507
ass(Vbase
p508
g446
Vnone
p509
tp510
(dp511
Vflavours
p512
(lp513
V686
p514
aV686-pae
p515
ass(Vdescription
p516
g446
g509
V686-pae
p517
tp518
(dp519
Vparts
p520
(lp521
Vxen
p522
ass(Vbase
p523
g446
Vrt
p524
tp525
(dp526
Vflavours
p527
(lp528
V686-pae
p529
ass(Vbase
p530
Vm68k
p531
tp532
(dp533
Vcflags
p534
V-ffreestanding
p535
sg155
(lp536
g157
asVkernel-arch
p537
Vm68k
p538
ss(Vbuild
p539
g531
tp540
(dp541
Vsigned-modules
p542
I00
sVimage-file
p543
Vvmlinux.gz
p544
ss(Vdescription
p545
g531
NVm68k
p546
tp547
(dp548
Vhardware
p549
VMotorola MC68020+ family
p550
ss(Vimage
p551
g531
tp552
(dp553
Vsuggests
p554
Vvmelilo, fdutils
p555
sVinstall-stem
p556
Vvmlinuz
p557
ss(g189
g531
g157
tp558
(dp559
g192
(lp560
Vm68k
p561
asg196
I01
ss(Vbase
p562
Vmips
p563
tp564
(dp565
g155
(lp566
g157
asVkernel-arch
p567
Vmips
p568
ss(Vbuild
p569
g563
tp570
(dp571
Vsigned-modules
p572
I00
sVimage-file
p573
Vvmlinux
p574
ss(Vimage
p575
g563
NV4kc-malta
p576
tp577
(dp578
Vconfigs
p579
(lp580
Vkernelarch-mips/config.malta
p581
aVkernelarch-mips/config.mips32r2
p582
ass(Vimage
p583
g563
NV5kc-malta
p584
tp585
(dp586
Vconfigs
p587
(lp588
Vkernelarch-mips/config.malta
p589
aVkernelarch-mips/config.mips64r2
p590
ass(Vdescription
p591
g563
NVocteon
p592
tp593
(dp594
Vhardware
p595
VOcteon
p596
sVhardware-long
p597
VCavium Networks Octeon
p598
ss(Vimage
p599
g563
NVocteon
p600
tp601
(dp602
Vconfigs
p603
(lp604
Vkernelarch-mips/config.octeon
p605
ass(Vimage
p606
g563
tp607
(dp608
Vinstall-stem
p609
Vvmlinux
p610
ss(Vdescription
p611
g563
NV5kc-malta
p612
tp613
(dp614
Vhardware
p615
VMIPS Malta (64-bit)
p616
sVhardware-long
p617
VMIPS Malta boards (64-bit)
p618
ss(Vdescription
p619
g563
NV4kc-malta
p620
tp621
(dp622
Vhardware
p623
VMIPS Malta
p624
sVhardware-long
p625
VMIPS Malta boards
p626
ss(g189
g563
g157
tp627
(dp628
g192
(lp629
V4kc-malta
p630
aV5kc-malta
p631
aVocteon
p632
asg196
I01
ss(Vbase
p633
Vmipsel
p634
tp635
(dp636
g155
(lp637
g157
asVkernel-arch
p638
Vmips
p639
ss(Vimage
p640
g634
NVloongson-3
p641
tp642
(dp643
Vconfigs
p644
(lp645
Vkernelarch-mips/config.loongson-3
p646
ass(Vbuild
p647
g634
tp648
(dp649
Vsigned-modules
p650
I00
sVimage-file
p651
Vvmlinux
p652
ss(Vimage
p653
g634
NV4kc-malta
p654
tp655
(dp656
Vconfigs
p657
(lp658
Vkernelarch-mips/config.malta
p659
aVkernelarch-mips/config.mips32r2
p660
ass(Vimage
p661
g634
NV5kc-malta
p662
tp663
(dp664
Vconfigs
p665
(lp666
Vkernelarch-mips/config.malta
p667
aVkernelarch-mips/config.mips64r2
p668
ass(Vdescription
p669
g634
NVocteon
p670
tp671
(dp672
Vhardware
p673
VOcteon
p674
sVhardware-long
p675
VCavium Networks Octeon
p676
ss(Vdescription
p677
g634
NVloongson-3
p678
tp679
(dp680
Vhardware
p681
VLoongson 3A/3B
p682
sVhardware-long
p683
VLoongson 3A or 3B based systems (e.g. from Loongson or Lemote)
p684
ss(Vimage
p685
g634
NVocteon
p686
tp687
(dp688
Vconfigs
p689
(lp690
Vkernelarch-mips/config.octeon
p691
ass(Vimage
p692
g634
tp693
(dp694
Vinstall-stem
p695
Vvmlinux
p696
ss(Vdescription
p697
g634
NV5kc-malta
p698
tp699
(dp700
Vhardware
p701
VMIPS Malta (64-bit)
p702
sVhardware-long
p703
VMIPS Malta boards (64-bit)
p704
ss(Vdescription
p705
g634
NV4kc-malta
p706
tp707
(dp708
Vhardware
p709
VMIPS Malta
p710
sVhardware-long
p711
VMIPS Malta boards
p712
ss(g189
g634
g157
tp713
(dp714
g192
(lp715
V4kc-malta
p716
aV5kc-malta
p717
aVloongson-3
p718
aVocteon
p719
asg196
I01
ss(Vbase
p720
Vmipsn32
p721
tp722
(dp723
Vfeaturesets
p724
(lp725
sVkernel-arch
p726
Vmips
p727
ss(Vbase
p728
Vmipsn32el
p729
tp730
(dp731
Vfeaturesets
p732
(lp733
sVkernel-arch
p734
Vmips
p735
ss(Vbase
p736
Vmips64
p737
tp738
(dp739
g155
(lp740
g157
asVkernel-arch
p741
Vmips
p742
ss(Vbuild
p743
g737
tp744
(dp745
Vsigned-modules
p746
I00
sVimage-file
p747
Vvmlinux
p748
ss(Vimage
p749
g737
NV5kc-malta
p750
tp751
(dp752
Vconfigs
p753
(lp754
Vkernelarch-mips/config.malta
p755
aVkernelarch-mips/config.mips64r2
p756
ass(Vdescription
p757
g737
NVocteon
p758
tp759
(dp760
Vhardware
p761
VOcteon
p762
sVhardware-long
p763
VCavium Networks Octeon
p764
ss(Vimage
p765
g737
tp766
(dp767
Vinstall-stem
p768
Vvmlinux
p769
ss(Vdescription
p770
g737
NV5kc-malta
p771
tp772
(dp773
Vhardware
p774
VMIPS Malta
p775
sVhardware-long
p776
VMIPS Malta boards
p777
ss(Vimage
p778
g737
NVocteon
p779
tp780
(dp781
Vconfigs
p782
(lp783
Vkernelarch-mips/config.octeon
p784
ass(g189
g737
g157
tp785
(dp786
g192
(lp787
V5kc-malta
p788
aVocteon
p789
asg196
I01
ss(Vbase
p790
Vmips64el
p791
tp792
(dp793
g155
(lp794
g157
asVkernel-arch
p795
Vmips
p796
ss(Vimage
p797
g791
NVloongson-3
p798
tp799
(dp800
Vconfigs
p801
(lp802
Vkernelarch-mips/config.loongson-3
p803
ass(Vbuild
p804
g791
tp805
(dp806
Vsigned-modules
p807
I00
sVimage-file
p808
Vvmlinux
p809
ss(Vimage
p810
g791
NV5kc-malta
p811
tp812
(dp813
Vconfigs
p814
(lp815
Vkernelarch-mips/config.malta
p816
aVkernelarch-mips/config.mips64r2
p817
ass(Vdescription
p818
g791
NVocteon
p819
tp820
(dp821
Vhardware
p822
VOcteon
p823
sVhardware-long
p824
VCavium Networks Octeon
p825
ss(Vdescription
p826
g791
NVloongson-3
p827
tp828
(dp829
Vhardware
p830
VLoongson 3A/3B
p831
sVhardware-long
p832
VLoongson 3A or 3B based systems (e.g. from Loongson or Lemote)
p833
ss(Vimage
p834
g791
tp835
(dp836
Vinstall-stem
p837
Vvmlinux
p838
ss(Vdescription
p839
g791
NV5kc-malta
p840
tp841
(dp842
Vhardware
p843
VMIPS Malta
p844
sVhardware-long
p845
VMIPS Malta boards
p846
ss(Vimage
p847
g791
NVocteon
p848
tp849
(dp850
Vconfigs
p851
(lp852
Vkernelarch-mips/config.octeon
p853
ass(g189
g791
g157
tp854
(dp855
g192
(lp856
V5kc-malta
p857
aVloongson-3
p858
aVocteon
p859
asg196
I01
ss(Vbase
p860
Vpowerpc
p861
tp862
(dp863
g155
(lp864
g157
asVkernel-arch
p865
Vpowerpc
p866
ss(Vdescription
p867
g861
NVpowerpc64
p868
tp869
(dp870
Vhardware
p871
V64-bit PowerPC
p872
ss(Vbuild
p873
g861
tp874
(dp875
Vvdso
p876
I01
sVimage-file
p877
Vvmlinux
p878
ss(Vimage
p879
g861
NVpowerpc-smp
p880
tp881
(dp882
Vconfigs
p883
(lp884
Vpowerpc/config.powerpc
p885
aVpowerpc/config.powerpc-smp
p886
ass(Vdescription
p887
g861
NVpowerpc
p888
tp889
(dp890
Vhardware
p891
Vuniprocessor 32-bit PowerPC
p892
ss(Vimage
p893
g861
NVpowerpc64
p894
tp895
(dp896
Vconfigs
p897
(lp898
Vkernelarch-powerpc/config-arch-64
p899
aVkernelarch-powerpc/config-arch-64-be
p900
ass(Vdescription
p901
g861
NVpowerpc-smp
p902
tp903
(dp904
Vhardware
p905
Vmultiprocessor 32-bit PowerPC
p906
ss(Vimage
p907
g861
tp908
(dp909
Vsuggests
p910
Vmkvmlinuz
p911
sVinstall-stem
p912
Vvmlinux
p913
sVconfigs
p914
(lp915
ss(g189
g861
g157
tp916
(dp917
g192
(lp918
Vpowerpc
p919
aVpowerpc-smp
p920
aVpowerpc64
p921
asg196
I01
ss(Vbase
p922
Vpowerpcspe
p923
tp924
(dp925
g155
(lp926
g157
asVkernel-arch
p927
Vpowerpc
p928
ss(Vbuild
p929
g923
tp930
(dp931
Vsigned-modules
p932
I00
sVimage-file
p933
Vvmlinux
p934
sVvdso
p935
I01
ss(Vimage
p936
g923
tp937
(dp938
Vsuggests
p939
Vmkvmlinuz
p940
sVinstall-stem
p941
Vvmlinux
p942
ss(Vdescription
p943
g923
tp944
(dp945
Vhardware
p946
V32-bit PowerPC with SPE (instead of AltiVec) with SMP support
p947
ss(g189
g923
g157
tp948
(dp949
g192
(lp950
Vpowerpcspe
p951
asg196
I01
ss(Vbase
p952
Vppc64
p953
tp954
(dp955
g155
(lp956
g157
asVkernel-arch
p957
Vpowerpc
p958
ss(Vdescription
p959
g953
NVpowerpc64
p960
tp961
(dp962
Vhardware
p963
V64-bit PowerPC
p964
ss(Vbuild
p965
g953
tp966
(dp967
Vsigned-modules
p968
I00
sVimage-file
p969
Vvmlinux
p970
sVvdso
p971
I01
ss(Vimage
p972
g953
NVpowerpc64
p973
tp974
(dp975
Vconfigs
p976
(lp977
Vkernelarch-powerpc/config-arch-64
p978
aVkernelarch-powerpc/config-arch-64-be
p979
ass(Vimage
p980
g953
tp981
(dp982
Vsuggests
p983
Vmkvmlinuz
p984
sVinstall-stem
p985
Vvmlinux
p986
sVconfigs
p987
(lp988
ss(g189
g953
g157
tp989
(dp990
g192
(lp991
Vpowerpc64
p992
asg196
I01
ss(Vbase
p993
Vppc64el
p994
tp995
(dp996
g155
(lp997
g157
asVkernel-arch
p998
Vpowerpc
p999
ss(Vdescription
p1000
g994
NVpowerpc64le
p1001
tp1002
(dp1003
Vhardware
p1004
VLittle-endian 64-bit PowerPC
p1005
ss(Vbuild
p1006
g994
tp1007
(dp1008
Vvdso
p1009
I01
sVimage-file
p1010
Vvmlinux
p1011
ss(Vimage
p1012
g994
tp1013
(dp1014
Vsuggests
p1015
Vmkvmlinuz
p1016
sVinstall-stem
p1017
Vvmlinux
p1018
sVconfigs
p1019
(lp1020
ss(Vimage
p1021
g994
NVpowerpc64le
p1022
tp1023
(dp1024
Vconfigs
p1025
(lp1026
Vkernelarch-powerpc/config-arch-64
p1027
aVkernelarch-powerpc/config-arch-64-le
p1028
ass(g189
g994
g157
tp1029
(dp1030
g192
(lp1031
Vpowerpc64le
p1032
asg196
I01
ss(Vbase
p1033
Vs390
p1034
tp1035
(dp1036
Vfeaturesets
p1037
(lp1038
sVkernel-arch
p1039
Vs390
p1040
ss(Vbase
p1041
Vs390x
p1042
tp1043
(dp1044
g155
(lp1045
g157
asVkernel-arch
p1046
Vs390
p1047
ss(Vdescription
p1048
g1042
NVs390x
p1049
tp1050
(dp1051
Vhardware
p1052
VIBM zSeries
p1053
ss(Vbuild
p1054
g1042
tp1055
(dp1056
Vvdso
p1057
I01
sVimage-file
p1058
Varch/s390/boot/image
p1059
ss(Vbuild
p1060
g1042
NVs390x
p1061
tp1062
(dp1063
Vdebug-info
p1064
I01
ss(Vrelations
p1065
g1042
tp1066
(dp1067
Vheaders%gcc-6
p1068
Vlinux-compiler-gcc-6-s390
p1069
ss(Vimage
p1070
g1042
tp1071
(dp1072
Vinstall-stem
p1073
Vvmlinuz
p1074
sVbootloaders
p1075
(lp1076
Vs390-tools
p1077
ass(g189
g1042
g157
tp1078
(dp1079
g192
(lp1080
Vs390x
p1081
asg196
I01
ss(Vbase
p1082
Vsh3
p1083
tp1084
(dp1085
Vfeaturesets
p1086
(lp1087
sVkernel-arch
p1088
Vsh
p1089
ss(Vbase
p1090
Vsh4
p1091
tp1092
(dp1093
g155
(lp1094
g157
asVkernel-arch
p1095
Vsh
p1096
ss(Vbuild
p1097
g1091
tp1098
(dp1099
Vsigned-modules
p1100
I00
sVimage-file
p1101
Varch/sh/boot/zImage
p1102
ss(Vdescription
p1103
g1091
NVsh7751r
p1104
tp1105
(dp1106
Vhardware
p1107
Vsh7751r
p1108
sVhardware-long
p1109
VRenesas SH7751R R2D plus board
p1110
ss(Vdescription
p1111
g1091
NVsh7785lcr
p1112
tp1113
(dp1114
Vhardware
p1115
Vsh7785lcr
p1116
sVhardware-long
p1117
VRenesas SH7785 reference board
p1118
ss(Vimage
p1119
g1091
tp1120
(dp1121
Vinstall-stem
p1122
Vvmlinuz
p1123
ss(Vimage
p1124
g1091
NVsh7785lcr
p1125
tp1126
(dp1127
Vrecommends
p1128
Vu-boot-tools
p1129
sVcheck-size
p1130
L4194304L
ss(g189
g1091
g157
tp1131
(dp1132
g192
(lp1133
Vsh7751r
p1134
aVsh7785lcr
p1135
asg196
I01
ss(Vbase
p1136
Vsparc
p1137
tp1138
(dp1139
Vfeaturesets
p1140
(lp1141
sVkernel-arch
p1142
Vsparc
p1143
ss(Vbase
p1144
Vsparc64
p1145
tp1146
(dp1147
g155
(lp1148
g157
asVkernel-arch
p1149
Vsparc
p1150
ss(Vbuild
p1151
g1145
tp1152
(dp1153
Vsigned-modules
p1154
I00
sVimage-file
p1155
Varch/sparc/boot/zImage
p1156
ss(Vimage
p1157
g1145
NVsparc64
p1158
tp1159
(dp1160
Vconfigs
p1161
(lp1162
Vkernelarch-sparc/config-up
p1163
ass(Vimage
p1164
g1145
NVsparc64-smp
p1165
tp1166
(dp1167
Vconfigs
p1168
(lp1169
Vkernelarch-sparc/config-smp
p1170
ass(Vimage
p1171
g1145
tp1172
(dp1173
Vsuggests
p1174
Vsilo, fdutils
p1175
sVinstall-stem
p1176
Vvmlinuz
p1177
sVconfigs
p1178
(lp1179
ss(Vdescription
p1180
g1145
NVsparc64-smp
p1181
tp1182
(dp1183
Vhardware
p1184
Vmultiprocessor 64-bit UltraSPARC
p1185
ss(Vdescription
p1186
g1145
NVsparc64
p1187
tp1188
(dp1189
Vhardware
p1190
Vuniprocessor 64-bit UltraSPARC
p1191
ss(g189
g1145
g157
tp1192
(dp1193
g192
(lp1194
Vsparc64
p1195
aVsparc64-smp
p1196
asg196
I01
ss(Vbase
p1197
Vtilegx
p1198
tp1199
(dp1200
Vfeaturesets
p1201
(lp1202
sVkernel-arch
p1203
Vtile
p1204
ss(Vbase
p1205
Vx32
p1206
tp1207
(dp1208
Vfeaturesets
p1209
(lp1210
sVkernel-arch
p1211
Vx86
p1212
ss(Vdescription
p1213
NVrt
p1214
tp1215
(dp1216
Vparts
p1217
(lp1218
Vrt
p1219
asVpart-long-rt
p1220
VThis kernel includes the PREEMPT_RT realtime patch set.
p1221
sVpart-short-rt
p1222
VPREEMPT_RT
p1223
ss(Vabi
p1224
Ng1214
tp1225
(dp1226
Vignore-changes
p1227
(lp1228
V*
p1229
ass(Vversion
p1230
tp1231
(dp1232
Vupstream
p1233
V4.9
p1234
sVsource
p1235
V4.9.130-2
p1236
sVabiname
p1237
V4.9.0-8
p1238
sVabiname_base
p1239
V4.9.0
p1240
ss.