cdebian_linux.config
ConfigCore
p0
(tRp1
(Vbase
p2
tp3
(dp4
Varches
p5
(lp6
Valpha
p7
aVamd64
p8
aVarm64
p9
aVarmel
p10
aVarmhf
p11
aVhppa
p12
aVi386
p13
aVm68k
p14
aVmips
p15
aVmipsel
p16
aVmipsn32
p17
aVmipsn32el
p18
aVmips64
p19
aVmips64el
p20
aVpowerpc
p21
aVpowerpcspe
p22
aVppc64
p23
aVppc64el
p24
aVs390
p25
aVs390x
p26
aVsh3
p27
aVsh4
p28
aVsparc
p29
aVsparc64
p30
aVtilegx
p31
aVx32
p32
asVfeaturesets
p33
(lp34
Vnone
p35
aVrt
p36
asVcompiler
p37
Vgcc-6
p38
ss(Vbuild
p39
tp40
(dp41
Vsigned-modules
p42
I00
sVdebug-info
p43
I01
ss(Vbase
p44
NVrt
p45
tp46
(dp47
Venabled
p48
I01
ss(Vdescription
p49
tp50
(dp51
Vpart-long-up
p52
VThis kernel is not suitable for SMP (multi-processor,\u000amulti-core or hyper-threaded) systems.
p53
sVpart-long-xen
p54
VThis kernel also runs on a Xen hypervisor.\u000aIt supports both privileged (dom0) and unprivileged (domU) operation.
p55
ss(Vrelations
p56
tp57
(dp58
Vinitramfs-tools
p59
Vinitramfs-tools (>= 0.120+deb8u2)
p60
sVgcc-6
p61
Vgcc-6 <!stage1 !cross>, gcc-6-@gnu-type-package@ <!stage1 cross>
p62
sVinitramfs-fallback
p63
Vlinux-initramfs-tool
p64
ss(Vimage
p65
tp66
(dp67
Vinitramfs-generators
p68
(lp69
Vinitramfs-tools
p70
aVinitramfs-fallback
p71
ass(Vabi
p72
tp73
(dp74
Vabiname
p75
V14
p76
sVignore-changes
p77
(lp78
V__cpuhp_*
p79
aVbpf_analyzer
p80
aVcpu_tlbstate
p81
aVcxl_*
p82
aVinet_frag_*
p83
aVinet_frags_*
p84
aVinjectm
p85
aVip6_expire_frag_queue
p86
aVip6_frag_*
p87
aVmce_*
p88
aVmm_iommu_*
p89
aVmv_mbus_*
p90
aVregister_cxl_calls
p91
aVregister_key_type
p92
aVtpm_*
p93
aVtpmm_chip_alloc
p94
aVunregister_cxl_calls
p95
aVmodule:drivers/block/loop
p96
aVmodule:drivers/crypto/ccp/*
p97
aVmodule:drivers/edac/edac_mce_amd
p98
aVmodule:drivers/hv/*
p99
aVmodule:drivers/iio/common/hid-sensors/*
p100
aVmodule:drivers/iio/common/st_sensors/**
p101
aVmodule:drivers/net/ethernet/**
p102
aVmodule:drivers/net/wireless/**
p103
aVmodule:drivers/nfc/**
p104
aVmodule:drivers/nvdimm/*
p105
aVmodule:drivers/nvme/**
p106
aVmodule:drivers/power/supply/bq27xxx_battery
p107
aVmodule:drivers/s390/net/qeth
p108
aVmodule:drivers/s390/net/qeth*
p109
aVmodule:drivers/scsi/cxgbi/*
p110
aVmodule:drivers/scsi/esp_scsi
p111
aVmodule:drivers/scsi/libiscs*
p112
aVmodule:drivers/scsi/qla2xxx/qla2xxx
p113
aVmodule:drivers/scsi/ufs/*
p114
aVmodule:drivers/target/**
p115
aVmodule:drivers/usb/chipidea/**
p116
aVmodule:drivers/usb/gadget/**
p117
aVmodule:drivers/usb/host/**
p118
aVmodule:drivers/usb/musb/**
p119
aVmodule:drivers/vhost/vhost
p120
aVmodule:fs/crypto/fscrypto
p121
aVmodule:fs/nfs/nfs
p122
aVmodule:net/ceph/libceph
p123
aVmodule:net/nfc/hci/hci
p124
aVmodule:net/l2tp/**
p125
aVmodule:net/vmw_vsock/*
p126
aVmodule:sound/firewire/snd-firewire-lib
p127
aVmodule:sound/pci/hda/*
p128
aVbtree_*
p129
aVvisitor*
p130
aVcan_rx_register
p131
aVip6_xmit
p132
aVmodule:net/dccp/dccp
p133
aVmodule:net/rds/rds
p134
aVdevfreq_*
p135
aVdevm_devfreq_*
p136
aVupdate_devfreq
p137
aVmodule:drivers/infiniband/**
p138
aVacpi_ec_add_query_handler
p139
aVacpi_ec_remove_query_handler
p140
aVfirst_ec
p141
aVdebugfs_create_automount
p142
aV__gfn_*
p143
aV__kvm_*
p144
aVgfn_*
p145
aVkvm_*
p146
aVmark_page_dirty
p147
aVvcpu_*
p148
aVmodule:arch/powerpc/kvm/*
p149
aVmodule:arch/s390/kvm/*
p150
aVmodule:arch/x86/kvm/*
p151
aV*_evtchn_*
p152
aV*_xen_*
p153
aV*_xenballooned_*
p154
aV*_xenbus_*
p155
aV*_xenstore_*
p156
aVgnttab_*
p157
aVHYPERVISOR_*
p158
aVx86_hyper_xen
p159
aVxen_*
p160
aVxenbus_*
p161
aVreturn_address
p162
aVbr_netfilter_enable
p163
ass(Vbase
p164
Valpha
p165
tp166
(dp167
Vfeaturesets
p168
(lp169
Vnone
p170
asVkernel-arch
p171
Valpha
p172
ss(Vdescription
p173
g165
NValpha-smp
p174
tp175
(dp176
Vhardware
p177
VAlpha SMP
p178
sVhardware-long
p179
VDEC Alpha SMP systems with extended kernel start address (Wildfire, Titan, Marvel)
p180
ss(Vbuild
p181
g165
tp182
(dp183
Vsigned-modules
p184
I00
sVimage-file
p185
Varch/alpha/boot/vmlinux.gz
p186
ss(Vdescription
p187
g165
NValpha-generic
p188
tp189
(dp190
Vhardware
p191
VAlpha
p192
sVhardware-long
p193
VDEC Alpha systems with extended kernel start address (Wildfire, Titan, Marvel)
p194
ss(Vimage
p195
g165
tp196
(dp197
Vsuggests
p198
Vaboot, fdutils
p199
sVinstall-stem
p200
Vvmlinuz
p201
ss(Vbase
p202
g165
g170
tp203
(dp204
Vflavours
p205
(lp206
Valpha-generic
p207
aValpha-smp
p208
asVimplicit-flavour
p209
I01
ss(Vbase
p210
Vamd64
p211
tp212
(dp213
Vfeaturesets
p214
(lp215
Vnone
p216
aVrt
p217
asVkernel-arch
p218
Vx86
p219
ss(Vdescription
p220
g211
NVamd64
p221
tp222
(dp223
Vhardware
p224
V64-bit PCs
p225
sVhardware-long
p226
VPCs with AMD64, Intel 64 or VIA Nano processors
p227
ss(Vbuild
p228
g211
tp229
(dp230
Vvdso
p231
I01
sVimage-file
p232
Varch/x86/boot/bzImage
p233
sVdebug-info
p234
I01
ss(Vrelations
p235
g211
tp236
(dp237
Vheaders%gcc-6
p238
Vlinux-compiler-gcc-6-x86 (>= 4.9.82-1+deb9u1~)
p239
sVgcc-6
p240
Vgcc-6 (>= 6.3.0-18+deb9u1~) <!stage1 !cross>, gcc-6-@gnu-type-package@ (>= 6.3.0-18+deb9u1~) <!stage1 cross>
p241
ss(Vimage
p242
g211
tp243
(dp244
Vbreaks
p245
Vxserver-xorg-input-vmmouse (<< 1:13.0.99), qemu-system-x86 (<< 1:2.5+dfsg-1)
p246
sVinstall-stem
p247
Vvmlinuz
p248
sVbootloaders
p249
(lp250
Vgrub-pc
p251
aVgrub-efi-amd64
p252
aVextlinux
p253
ass(Vbase
p254
g211
Vnone
p255
tp256
(dp257
Vflavours
p258
(lp259
Vamd64
p260
ass(Vdescription
p261
g211
g255
Vamd64
p262
tp263
(dp264
Vparts
p265
(lp266
Vxen
p267
ass(Vbase
p268
g211
Vrt
p269
tp270
(dp271
Vflavours
p272
(lp273
Vamd64
p274
ass(Vbase
p275
Varm64
p276
tp277
(dp278
Vfeaturesets
p279
(lp280
Vnone
p281
asVkernel-arch
p282
Varm64
p283
ss(Vdescription
p284
g276
NVarm64
p285
tp286
(dp287
Vhardware
p288
V64-bit ARMv8 machines
p289
ss(Vbuild
p290
g276
tp291
(dp292
Vvdso
p293
I01
sVimage-file
p294
Varch/arm64/boot/Image
p295
sVdebug-info
p296
I01
ss(Vimage
p297
g276
NVarm64
p298
tp299
(dp300
s(Vimage
p301
g276
tp302
(dp303
Vbreaks
p304
Vlibmozjs185-1.0, libmozjs-24-0 (<< 24.2.0-5.1~)
p305
sVinstall-stem
p306
Vvmlinuz
p307
ss(Vbase
p308
g276
Vnone
p309
tp310
(dp311
Vflavours
p312
(lp313
Varm64
p314
ass(Vbase
p315
Varmel
p316
tp317
(dp318
g168
(lp319
g170
asVkernel-arch
p320
Varm
p321
ss(Vbuild
p322
g316
tp323
(dp324
Vsigned-modules
p325
I00
sVimage-file
p326
Varch/arm/boot/zImage
p327
ss(Vimage
p328
g316
NVmarvell
p329
tp330
(dp331
Vrecommends
p332
Vu-boot-tools
p333
sVbreaks
p334
Vflash-kernel (<< 3.57~)
p335
sVcheck-size-with-dtb
p336
I01
sVcheck-size
p337
L2097080L
ss(Vdescription
p338
g316
NVmarvell
p339
tp340
(dp341
Vhardware
p342
VMarvell Kirkwood/Orion
p343
sVhardware-long
p344
VMarvell Kirkwood based systems (SheevaPlug, QNAP TS-119/TS-219, etc)\u000aand Orion 5181, 5182 and 5281 based systems (QNAP TS-109/TS-209, etc)
p345
ss(Vrelations
p346
g316
tp347
(dp348
Vheaders%gcc-6
p349
Vlinux-compiler-gcc-6-arm
p350
ss(Vimage
p351
g316
tp352
(dp353
Vinstall-stem
p354
Vvmlinuz
p355
ss(g202
g316
g170
tp356
(dp357
g205
(lp358
Vmarvell
p359
asg209
I01
ss(Vbase
p360
Varmhf
p361
tp362
(dp363
g168
(lp364
g170
asVkernel-arch
p365
Varm
p366
ss(Vdescription
p367
g361
NVarmmp
p368
tp369
(dp370
Vhardware
p371
VARMv7 multiplatform compatible SoCs
p372
sVhardware-long
p373
VARMv7 multiplatform kernel. See\u000ahttps://wiki.debian.org/DebianKernel/ARMMP for details of supported\u000aplatforms
p374
ss(Vbuild
p375
g361
tp376
(dp377
Vvdso
p378
I01
sVimage-file
p379
Varch/arm/boot/zImage
p380
ss(Vdescription
p381
g361
NVarmmp-lpae
p382
tp383
(dp384
Vhardware
p385
VARMv7 multiplatform compatible SoCs supporting LPAE
p386
sVhardware-long
p387
VARMv7 multiplatform kernel supporting LPAE. See\u000ahttps://wiki.debian.org/DebianKernel/ARMMP for details of supported\u000aplatforms.
p388
ss(Vrelations
p389
g361
tp390
(dp391
Vheaders%gcc-6
p392
Vlinux-compiler-gcc-6-arm
p393
ss(Vimage
p394
g361
tp395
(dp396
Vinstall-stem
p397
Vvmlinuz
p398
ss(g202
g361
g170
tp399
(dp400
g205
(lp401
Varmmp
p402
aVarmmp-lpae
p403
asg209
I01
ss(Vbase
p404
Vhppa
p405
tp406
(dp407
g168
(lp408
g170
asVkernel-arch
p409
Vparisc
p410
ss(Vbuild
p411
g405
tp412
(dp413
Vsigned-modules
p414
I00
sVimage-file
p415
Vvmlinux
p416
ss(Vdescription
p417
g405
NVparisc64-smp
p418
tp419
(dp420
Vhardware
p421
Vmultiprocessor 64-bit PA-RISC
p422
sVhardware-long
p423
VHP PA-RISC 64-bit SMP systems with support for more than 4 GB RAM
p424
ss(Vbase
p425
g405
NVparisc64-smp
p426
tp427
(dp428
Vcflags
p429
V-fno-cse-follow-jumps
p430
sVoverride-host-type
p431
Vhppa64-linux-gnu
p432
ss(Vrelations
p433
g405
tp434
(dp435
Vgcc-6
p436
Vgcc-6 <!stage1 !cross>, binutils-hppa64-linux-gnu <!stage1 !cross>, gcc-6-hppa64-linux-gnu <!stage1 !cross>, gcc-6-hppa-linux-gnu <!stage1 cross>, binutils-hppa64-linux-gnu <!stage1 cross>, gcc-6-hppa64-linux-gnu <!stage1 cross>
p437
ss(Vdescription
p438
g405
NVparisc
p439
tp440
(dp441
Vhardware
p442
V32-bit PA-RISC
p443
sVhardware-long
p444
VHP PA-RISC 32-bit systems with max 4 GB RAM
p445
ss(Vimage
p446
g405
tp447
(dp448
Vsuggests
p449
Vpalo
p450
sVinstall-stem
p451
Vvmlinux
p452
ss(g202
g405
g170
tp453
(dp454
g205
(lp455
Vparisc
p456
aVparisc64-smp
p457
asg209
I01
ss(Vbase
p458
Vi386
p459
tp460
(dp461
Vfeaturesets
p462
(lp463
Vnone
p464
aVrt
p465
asVkernel-arch
p466
Vx86
p467
ss(Vbuild
p468
g459
tp469
(dp470
Vvdso
p471
I01
sVimage-file
p472
Varch/x86/boot/bzImage
p473
ss(Vdescription
p474
g459
NV686-pae
p475
tp476
(dp477
Vhardware
p478
Vmodern PCs
p479
sVhardware-long
p480
VPCs with one or more processors supporting PAE
p481
sVparts
p482
(lp483
Vpae
p484
ass(Vdescription
p485
g459
tp486
(dp487
Vpart-long-pae
p488
VThis kernel requires PAE (Physical Address Extension).\u000aThis feature is supported by the Intel Pentium Pro/II/III/4/4M/D, Xeon,\u000aCore and Atom; AMD Geode NX, Athlon (K7), Duron, Opteron, Sempron,\u000aTurion or Phenom; Transmeta Efficeon; VIA C7; and some other processors.
p489
ss(Vbuild
p490
g459
NV686-pae
p491
tp492
(dp493
Vdebug-info
p494
I01
ss(Vdescription
p495
g459
NV686
p496
tp497
(dp498
Vhardware
p499
Volder PCs
p500
sVhardware-long
p501
VPCs with one or more processors not supporting PAE
p502
ss(Vrelations
p503
g459
tp504
(dp505
Vheaders%gcc-6
p506
Vlinux-compiler-gcc-6-x86 (>= 4.9.82-1+deb9u1~)
p507
sVgcc-6
p508
Vgcc-6 (>= 6.3.0-18+deb9u1~) <!stage1 !cross>, gcc-6-@gnu-type-package@ (>= 6.3.0-18+deb9u1~) <!stage1 cross>
p509
ss(Vimage
p510
g459
tp511
(dp512
Vbreaks
p513
Vxserver-xorg-input-vmmouse (<< 1:13.0.99), qemu-system-x86 (<< 1:2.5+dfsg-1)
p514
sVinstall-stem
p515
Vvmlinuz
p516
sVbootloaders
p517
(lp518
Vgrub-pc
p519
aVextlinux
p520
ass(Vbase
p521
g459
Vnone
p522
tp523
(dp524
Vflavours
p525
(lp526
V686
p527
aV686-pae
p528
ass(Vdescription
p529
g459
g522
V686-pae
p530
tp531
(dp532
Vparts
p533
(lp534
Vxen
p535
ass(Vbase
p536
g459
Vrt
p537
tp538
(dp539
Vflavours
p540
(lp541
V686-pae
p542
ass(Vbase
p543
Vm68k
p544
tp545
(dp546
Vcflags
p547
V-ffreestanding
p548
sg168
(lp549
g170
asVkernel-arch
p550
Vm68k
p551
ss(Vbuild
p552
g544
tp553
(dp554
Vsigned-modules
p555
I00
sVimage-file
p556
Vvmlinux.gz
p557
ss(Vdescription
p558
g544
NVm68k
p559
tp560
(dp561
Vhardware
p562
VMotorola MC68020+ family
p563
ss(Vimage
p564
g544
tp565
(dp566
Vsuggests
p567
Vvmelilo, fdutils
p568
sVinstall-stem
p569
Vvmlinuz
p570
ss(g202
g544
g170
tp571
(dp572
g205
(lp573
Vm68k
p574
asg209
I01
ss(Vbase
p575
Vmips
p576
tp577
(dp578
g168
(lp579
g170
asVkernel-arch
p580
Vmips
p581
ss(Vbuild
p582
g576
tp583
(dp584
Vsigned-modules
p585
I00
sVimage-file
p586
Vvmlinux
p587
ss(Vimage
p588
g576
NV4kc-malta
p589
tp590
(dp591
Vconfigs
p592
(lp593
Vkernelarch-mips/config.malta
p594
aVkernelarch-mips/config.mips32r2
p595
ass(Vimage
p596
g576
NV5kc-malta
p597
tp598
(dp599
Vconfigs
p600
(lp601
Vkernelarch-mips/config.malta
p602
aVkernelarch-mips/config.mips64r2
p603
ass(Vdescription
p604
g576
NVocteon
p605
tp606
(dp607
Vhardware
p608
VOcteon
p609
sVhardware-long
p610
VCavium Networks Octeon
p611
ss(Vimage
p612
g576
NVocteon
p613
tp614
(dp615
Vconfigs
p616
(lp617
Vkernelarch-mips/config.octeon
p618
ass(Vimage
p619
g576
tp620
(dp621
Vinstall-stem
p622
Vvmlinux
p623
ss(Vdescription
p624
g576
NV5kc-malta
p625
tp626
(dp627
Vhardware
p628
VMIPS Malta (64-bit)
p629
sVhardware-long
p630
VMIPS Malta boards (64-bit)
p631
ss(Vdescription
p632
g576
NV4kc-malta
p633
tp634
(dp635
Vhardware
p636
VMIPS Malta
p637
sVhardware-long
p638
VMIPS Malta boards
p639
ss(g202
g576
g170
tp640
(dp641
g205
(lp642
V4kc-malta
p643
aV5kc-malta
p644
aVocteon
p645
asg209
I01
ss(Vbase
p646
Vmipsel
p647
tp648
(dp649
g168
(lp650
g170
asVkernel-arch
p651
Vmips
p652
ss(Vimage
p653
g647
NVloongson-3
p654
tp655
(dp656
Vconfigs
p657
(lp658
Vkernelarch-mips/config.loongson-3
p659
ass(Vbuild
p660
g647
tp661
(dp662
Vsigned-modules
p663
I00
sVimage-file
p664
Vvmlinux
p665
ss(Vimage
p666
g647
NV4kc-malta
p667
tp668
(dp669
Vconfigs
p670
(lp671
Vkernelarch-mips/config.malta
p672
aVkernelarch-mips/config.mips32r2
p673
ass(Vimage
p674
g647
NV5kc-malta
p675
tp676
(dp677
Vconfigs
p678
(lp679
Vkernelarch-mips/config.malta
p680
aVkernelarch-mips/config.mips64r2
p681
ass(Vdescription
p682
g647
NVocteon
p683
tp684
(dp685
Vhardware
p686
VOcteon
p687
sVhardware-long
p688
VCavium Networks Octeon
p689
ss(Vdescription
p690
g647
NVloongson-3
p691
tp692
(dp693
Vhardware
p694
VLoongson 3A/3B
p695
sVhardware-long
p696
VLoongson 3A or 3B based systems (e.g. from Loongson or Lemote)
p697
ss(Vimage
p698
g647
NVocteon
p699
tp700
(dp701
Vconfigs
p702
(lp703
Vkernelarch-mips/config.octeon
p704
ass(Vimage
p705
g647
tp706
(dp707
Vinstall-stem
p708
Vvmlinux
p709
ss(Vdescription
p710
g647
NV5kc-malta
p711
tp712
(dp713
Vhardware
p714
VMIPS Malta (64-bit)
p715
sVhardware-long
p716
VMIPS Malta boards (64-bit)
p717
ss(Vdescription
p718
g647
NV4kc-malta
p719
tp720
(dp721
Vhardware
p722
VMIPS Malta
p723
sVhardware-long
p724
VMIPS Malta boards
p725
ss(g202
g647
g170
tp726
(dp727
g205
(lp728
V4kc-malta
p729
aV5kc-malta
p730
aVloongson-3
p731
aVocteon
p732
asg209
I01
ss(Vbase
p733
Vmipsn32
p734
tp735
(dp736
Vfeaturesets
p737
(lp738
sVkernel-arch
p739
Vmips
p740
ss(Vbase
p741
Vmipsn32el
p742
tp743
(dp744
Vfeaturesets
p745
(lp746
sVkernel-arch
p747
Vmips
p748
ss(Vbase
p749
Vmips64
p750
tp751
(dp752
g168
(lp753
g170
asVkernel-arch
p754
Vmips
p755
ss(Vbuild
p756
g750
tp757
(dp758
Vsigned-modules
p759
I00
sVimage-file
p760
Vvmlinux
p761
ss(Vimage
p762
g750
NV5kc-malta
p763
tp764
(dp765
Vconfigs
p766
(lp767
Vkernelarch-mips/config.malta
p768
aVkernelarch-mips/config.mips64r2
p769
ass(Vdescription
p770
g750
NVocteon
p771
tp772
(dp773
Vhardware
p774
VOcteon
p775
sVhardware-long
p776
VCavium Networks Octeon
p777
ss(Vimage
p778
g750
tp779
(dp780
Vinstall-stem
p781
Vvmlinux
p782
ss(Vdescription
p783
g750
NV5kc-malta
p784
tp785
(dp786
Vhardware
p787
VMIPS Malta
p788
sVhardware-long
p789
VMIPS Malta boards
p790
ss(Vimage
p791
g750
NVocteon
p792
tp793
(dp794
Vconfigs
p795
(lp796
Vkernelarch-mips/config.octeon
p797
ass(g202
g750
g170
tp798
(dp799
g205
(lp800
V5kc-malta
p801
aVocteon
p802
asg209
I01
ss(Vbase
p803
Vmips64el
p804
tp805
(dp806
g168
(lp807
g170
asVkernel-arch
p808
Vmips
p809
ss(Vimage
p810
g804
NVloongson-3
p811
tp812
(dp813
Vconfigs
p814
(lp815
Vkernelarch-mips/config.loongson-3
p816
ass(Vbuild
p817
g804
tp818
(dp819
Vsigned-modules
p820
I00
sVimage-file
p821
Vvmlinux
p822
ss(Vimage
p823
g804
NV5kc-malta
p824
tp825
(dp826
Vconfigs
p827
(lp828
Vkernelarch-mips/config.malta
p829
aVkernelarch-mips/config.mips64r2
p830
ass(Vdescription
p831
g804
NVocteon
p832
tp833
(dp834
Vhardware
p835
VOcteon
p836
sVhardware-long
p837
VCavium Networks Octeon
p838
ss(Vdescription
p839
g804
NVloongson-3
p840
tp841
(dp842
Vhardware
p843
VLoongson 3A/3B
p844
sVhardware-long
p845
VLoongson 3A or 3B based systems (e.g. from Loongson or Lemote)
p846
ss(Vimage
p847
g804
tp848
(dp849
Vinstall-stem
p850
Vvmlinux
p851
ss(Vdescription
p852
g804
NV5kc-malta
p853
tp854
(dp855
Vhardware
p856
VMIPS Malta
p857
sVhardware-long
p858
VMIPS Malta boards
p859
ss(Vimage
p860
g804
NVocteon
p861
tp862
(dp863
Vconfigs
p864
(lp865
Vkernelarch-mips/config.octeon
p866
ass(g202
g804
g170
tp867
(dp868
g205
(lp869
V5kc-malta
p870
aVloongson-3
p871
aVocteon
p872
asg209
I01
ss(Vbase
p873
Vpowerpc
p874
tp875
(dp876
g168
(lp877
g170
asVkernel-arch
p878
Vpowerpc
p879
ss(Vdescription
p880
g874
NVpowerpc64
p881
tp882
(dp883
Vhardware
p884
V64-bit PowerPC
p885
ss(Vbuild
p886
g874
tp887
(dp888
Vvdso
p889
I01
sVimage-file
p890
Vvmlinux
p891
ss(Vimage
p892
g874
NVpowerpc-smp
p893
tp894
(dp895
Vconfigs
p896
(lp897
Vpowerpc/config.powerpc
p898
aVpowerpc/config.powerpc-smp
p899
ass(Vdescription
p900
g874
NVpowerpc
p901
tp902
(dp903
Vhardware
p904
Vuniprocessor 32-bit PowerPC
p905
ss(Vimage
p906
g874
NVpowerpc64
p907
tp908
(dp909
Vconfigs
p910
(lp911
Vkernelarch-powerpc/config-arch-64
p912
aVkernelarch-powerpc/config-arch-64-be
p913
ass(Vdescription
p914
g874
NVpowerpc-smp
p915
tp916
(dp917
Vhardware
p918
Vmultiprocessor 32-bit PowerPC
p919
ss(Vimage
p920
g874
tp921
(dp922
Vsuggests
p923
Vmkvmlinuz
p924
sVinstall-stem
p925
Vvmlinux
p926
sVconfigs
p927
(lp928
ss(g202
g874
g170
tp929
(dp930
g205
(lp931
Vpowerpc
p932
aVpowerpc-smp
p933
aVpowerpc64
p934
asg209
I01
ss(Vbase
p935
Vpowerpcspe
p936
tp937
(dp938
g168
(lp939
g170
asVkernel-arch
p940
Vpowerpc
p941
ss(Vbuild
p942
g936
tp943
(dp944
Vsigned-modules
p945
I00
sVimage-file
p946
Vvmlinux
p947
sVvdso
p948
I01
ss(Vimage
p949
g936
tp950
(dp951
Vsuggests
p952
Vmkvmlinuz
p953
sVinstall-stem
p954
Vvmlinux
p955
ss(Vdescription
p956
g936
tp957
(dp958
Vhardware
p959
V32-bit PowerPC with SPE (instead of AltiVec) with SMP support
p960
ss(g202
g936
g170
tp961
(dp962
g205
(lp963
Vpowerpcspe
p964
asg209
I01
ss(Vbase
p965
Vppc64
p966
tp967
(dp968
g168
(lp969
g170
asVkernel-arch
p970
Vpowerpc
p971
ss(Vdescription
p972
g966
NVpowerpc64
p973
tp974
(dp975
Vhardware
p976
V64-bit PowerPC
p977
ss(Vbuild
p978
g966
tp979
(dp980
Vsigned-modules
p981
I00
sVimage-file
p982
Vvmlinux
p983
sVvdso
p984
I01
ss(Vimage
p985
g966
NVpowerpc64
p986
tp987
(dp988
Vconfigs
p989
(lp990
Vkernelarch-powerpc/config-arch-64
p991
aVkernelarch-powerpc/config-arch-64-be
p992
ass(Vimage
p993
g966
tp994
(dp995
Vsuggests
p996
Vmkvmlinuz
p997
sVinstall-stem
p998
Vvmlinux
p999
sVconfigs
p1000
(lp1001
ss(g202
g966
g170
tp1002
(dp1003
g205
(lp1004
Vpowerpc64
p1005
asg209
I01
ss(Vbase
p1006
Vppc64el
p1007
tp1008
(dp1009
g168
(lp1010
g170
asVkernel-arch
p1011
Vpowerpc
p1012
ss(Vdescription
p1013
g1007
NVpowerpc64le
p1014
tp1015
(dp1016
Vhardware
p1017
VLittle-endian 64-bit PowerPC
p1018
ss(Vbuild
p1019
g1007
tp1020
(dp1021
Vvdso
p1022
I01
sVimage-file
p1023
Vvmlinux
p1024
ss(Vimage
p1025
g1007
tp1026
(dp1027
Vsuggests
p1028
Vmkvmlinuz
p1029
sVinstall-stem
p1030
Vvmlinux
p1031
sVconfigs
p1032
(lp1033
ss(Vimage
p1034
g1007
NVpowerpc64le
p1035
tp1036
(dp1037
Vconfigs
p1038
(lp1039
Vkernelarch-powerpc/config-arch-64
p1040
aVkernelarch-powerpc/config-arch-64-le
p1041
ass(g202
g1007
g170
tp1042
(dp1043
g205
(lp1044
Vpowerpc64le
p1045
asg209
I01
ss(Vbase
p1046
Vs390
p1047
tp1048
(dp1049
Vfeaturesets
p1050
(lp1051
sVkernel-arch
p1052
Vs390
p1053
ss(Vbase
p1054
Vs390x
p1055
tp1056
(dp1057
g168
(lp1058
g170
asVkernel-arch
p1059
Vs390
p1060
ss(Vdescription
p1061
g1055
NVs390x
p1062
tp1063
(dp1064
Vhardware
p1065
VIBM zSeries
p1066
ss(Vbuild
p1067
g1055
tp1068
(dp1069
Vvdso
p1070
I01
sVimage-file
p1071
Varch/s390/boot/image
p1072
ss(Vbuild
p1073
g1055
NVs390x
p1074
tp1075
(dp1076
Vdebug-info
p1077
I01
ss(Vrelations
p1078
g1055
tp1079
(dp1080
Vheaders%gcc-6
p1081
Vlinux-compiler-gcc-6-s390
p1082
ss(Vimage
p1083
g1055
tp1084
(dp1085
Vinstall-stem
p1086
Vvmlinuz
p1087
sVbootloaders
p1088
(lp1089
Vs390-tools
p1090
ass(g202
g1055
g170
tp1091
(dp1092
g205
(lp1093
Vs390x
p1094
asg209
I01
ss(Vbase
p1095
Vsh3
p1096
tp1097
(dp1098
Vfeaturesets
p1099
(lp1100
sVkernel-arch
p1101
Vsh
p1102
ss(Vbase
p1103
Vsh4
p1104
tp1105
(dp1106
g168
(lp1107
g170
asVkernel-arch
p1108
Vsh
p1109
ss(Vbuild
p1110
g1104
tp1111
(dp1112
Vsigned-modules
p1113
I00
sVimage-file
p1114
Varch/sh/boot/zImage
p1115
ss(Vdescription
p1116
g1104
NVsh7751r
p1117
tp1118
(dp1119
Vhardware
p1120
Vsh7751r
p1121
sVhardware-long
p1122
VRenesas SH7751R R2D plus board
p1123
ss(Vdescription
p1124
g1104
NVsh7785lcr
p1125
tp1126
(dp1127
Vhardware
p1128
Vsh7785lcr
p1129
sVhardware-long
p1130
VRenesas SH7785 reference board
p1131
ss(Vimage
p1132
g1104
tp1133
(dp1134
Vinstall-stem
p1135
Vvmlinuz
p1136
ss(Vimage
p1137
g1104
NVsh7785lcr
p1138
tp1139
(dp1140
Vrecommends
p1141
Vu-boot-tools
p1142
sVcheck-size
p1143
L4194304L
ss(g202
g1104
g170
tp1144
(dp1145
g205
(lp1146
Vsh7751r
p1147
aVsh7785lcr
p1148
asg209
I01
ss(Vbase
p1149
Vsparc
p1150
tp1151
(dp1152
Vfeaturesets
p1153
(lp1154
sVkernel-arch
p1155
Vsparc
p1156
ss(Vbase
p1157
Vsparc64
p1158
tp1159
(dp1160
g168
(lp1161
g170
asVkernel-arch
p1162
Vsparc
p1163
ss(Vbuild
p1164
g1158
tp1165
(dp1166
Vsigned-modules
p1167
I00
sVimage-file
p1168
Varch/sparc/boot/zImage
p1169
ss(Vimage
p1170
g1158
NVsparc64
p1171
tp1172
(dp1173
Vconfigs
p1174
(lp1175
Vkernelarch-sparc/config-up
p1176
ass(Vimage
p1177
g1158
NVsparc64-smp
p1178
tp1179
(dp1180
Vconfigs
p1181
(lp1182
Vkernelarch-sparc/config-smp
p1183
ass(Vimage
p1184
g1158
tp1185
(dp1186
Vsuggests
p1187
Vsilo, fdutils
p1188
sVinstall-stem
p1189
Vvmlinuz
p1190
sVconfigs
p1191
(lp1192
ss(Vdescription
p1193
g1158
NVsparc64-smp
p1194
tp1195
(dp1196
Vhardware
p1197
Vmultiprocessor 64-bit UltraSPARC
p1198
ss(Vdescription
p1199
g1158
NVsparc64
p1200
tp1201
(dp1202
Vhardware
p1203
Vuniprocessor 64-bit UltraSPARC
p1204
ss(g202
g1158
g170
tp1205
(dp1206
g205
(lp1207
Vsparc64
p1208
aVsparc64-smp
p1209
asg209
I01
ss(Vbase
p1210
Vtilegx
p1211
tp1212
(dp1213
Vfeaturesets
p1214
(lp1215
sVkernel-arch
p1216
Vtile
p1217
ss(Vbase
p1218
Vx32
p1219
tp1220
(dp1221
Vfeaturesets
p1222
(lp1223
sVkernel-arch
p1224
Vx86
p1225
ss(Vdescription
p1226
NVrt
p1227
tp1228
(dp1229
Vparts
p1230
(lp1231
Vrt
p1232
asVpart-long-rt
p1233
VThis kernel includes the PREEMPT_RT realtime patch set.
p1234
sVpart-short-rt
p1235
VPREEMPT_RT
p1236
ss(Vabi
p1237
Ng1227
tp1238
(dp1239
Vignore-changes
p1240
(lp1241
V*
p1242
ass(Vversion
p1243
tp1244
(dp1245
Vupstream
p1246
V4.9
p1247
sVsource
p1248
V4.9.246-2
p1249
sVabiname
p1250
V4.9.0-14
p1251
sVabiname_base
p1252
V4.9.0
p1253
ss.