cdebian_linux.config
ConfigCore
p0
(tRp1
(Vbase
p2
tp3
(dp4
Varches
p5
(lp6
Valpha
p7
aVamd64
p8
aVarm64
p9
aVarmel
p10
aVarmhf
p11
aVhppa
p12
aVi386
p13
aVm68k
p14
aVmips
p15
aVmipsel
p16
aVmipsn32
p17
aVmipsn32el
p18
aVmips64
p19
aVmips64el
p20
aVpowerpc
p21
aVpowerpcspe
p22
aVppc64
p23
aVppc64el
p24
aVs390
p25
aVs390x
p26
aVsh3
p27
aVsh4
p28
aVsparc
p29
aVsparc64
p30
aVtilegx
p31
aVx32
p32
asVfeaturesets
p33
(lp34
Vnone
p35
aVrt
p36
asVcompiler
p37
Vgcc-6
p38
ss(Vbuild
p39
tp40
(dp41
Vsigned-modules
p42
I00
sVdebug-info
p43
I01
ss(Vbase
p44
NVrt
p45
tp46
(dp47
Venabled
p48
I01
ss(Vdescription
p49
tp50
(dp51
Vpart-long-up
p52
VThis kernel is not suitable for SMP (multi-processor,\u000amulti-core or hyper-threaded) systems.
p53
sVpart-long-xen
p54
VThis kernel also runs on a Xen hypervisor.\u000aIt supports both privileged (dom0) and unprivileged (domU) operation.
p55
ss(Vrelations
p56
tp57
(dp58
Vinitramfs-tools
p59
Vinitramfs-tools (>= 0.120+deb8u2)
p60
sVgcc-6
p61
Vgcc-6 <!stage1 !cross>, gcc-6-@gnu-type-package@ <!stage1 cross>
p62
sVinitramfs-fallback
p63
Vlinux-initramfs-tool
p64
ss(Vimage
p65
tp66
(dp67
Vinitramfs-generators
p68
(lp69
Vinitramfs-tools
p70
aVinitramfs-fallback
p71
ass(Vabi
p72
tp73
(dp74
Vabiname
p75
V15
p76
sVignore-changes
p77
(lp78
V__cpuhp_*
p79
aVbpf_analyzer
p80
aVcpu_tlbstate
p81
aVcxl_*
p82
aVinet_frag_*
p83
aVinet_frags_*
p84
aVinjectm
p85
aVip6_expire_frag_queue
p86
aVip6_frag_*
p87
aVmce_*
p88
aVmm_iommu_*
p89
aVmv_mbus_*
p90
aVregister_cxl_calls
p91
aVregister_key_type
p92
aVtpm_*
p93
aVtpmm_chip_alloc
p94
aVunregister_cxl_calls
p95
aVmodule:drivers/block/loop
p96
aVmodule:drivers/crypto/ccp/*
p97
aVmodule:drivers/edac/edac_mce_amd
p98
aVmodule:drivers/hv/*
p99
aVmodule:drivers/iio/common/hid-sensors/*
p100
aVmodule:drivers/iio/common/st_sensors/**
p101
aVmodule:drivers/net/ethernet/**
p102
aVmodule:drivers/net/wireless/**
p103
aVmodule:drivers/nfc/**
p104
aVmodule:drivers/nvdimm/*
p105
aVmodule:drivers/nvme/**
p106
aVmodule:drivers/power/supply/bq27xxx_battery
p107
aVmodule:drivers/s390/net/qeth
p108
aVmodule:drivers/s390/net/qeth*
p109
aVmodule:drivers/scsi/cxgbi/*
p110
aVmodule:drivers/scsi/esp_scsi
p111
aVmodule:drivers/scsi/libiscs*
p112
aVmodule:drivers/scsi/qla2xxx/qla2xxx
p113
aVmodule:drivers/scsi/ufs/*
p114
aVmodule:drivers/target/**
p115
aVmodule:drivers/usb/chipidea/**
p116
aVmodule:drivers/usb/gadget/**
p117
aVmodule:drivers/usb/host/**
p118
aVmodule:drivers/usb/musb/**
p119
aVmodule:drivers/vhost/vhost
p120
aVmodule:fs/crypto/fscrypto
p121
aVmodule:fs/nfs/nfs
p122
aVmodule:net/ceph/libceph
p123
aVmodule:net/nfc/hci/hci
p124
aVmodule:net/l2tp/**
p125
aVmodule:net/vmw_vsock/*
p126
aVmodule:sound/firewire/snd-firewire-lib
p127
aVmodule:sound/pci/hda/*
p128
aVbtree_*
p129
aVvisitor*
p130
aVcan_rx_register
p131
aVip6_xmit
p132
aVmodule:net/dccp/dccp
p133
aVmodule:net/rds/rds
p134
aVxprt_register_transport
p135
aVxprt_unregister_transport
p136
aVdevfreq_*
p137
aVdevm_devfreq_*
p138
aVupdate_devfreq
p139
aVmodule:drivers/infiniband/**
p140
aVacpi_ec_add_query_handler
p141
aVacpi_ec_remove_query_handler
p142
aVfirst_ec
p143
aVdebugfs_create_automount
p144
aV__gfn_*
p145
aV__kvm_*
p146
aVgfn_*
p147
aVkvm_*
p148
aVmark_page_dirty
p149
aVvcpu_*
p150
aVmodule:arch/powerpc/kvm/*
p151
aVmodule:arch/s390/kvm/*
p152
aVmodule:arch/x86/kvm/*
p153
aV*_evtchn_*
p154
aV*_xen_*
p155
aV*_xenballooned_*
p156
aV*_xenbus_*
p157
aV*_xenstore_*
p158
aVgnttab_*
p159
aVHYPERVISOR_*
p160
aVx86_hyper_xen
p161
aVxen_*
p162
aVxenbus_*
p163
aVreturn_address
p164
aVbr_netfilter_enable
p165
ass(Vbase
p166
Valpha
p167
tp168
(dp169
Vfeaturesets
p170
(lp171
Vnone
p172
asVkernel-arch
p173
Valpha
p174
ss(Vdescription
p175
g167
NValpha-smp
p176
tp177
(dp178
Vhardware
p179
VAlpha SMP
p180
sVhardware-long
p181
VDEC Alpha SMP systems with extended kernel start address (Wildfire, Titan, Marvel)
p182
ss(Vbuild
p183
g167
tp184
(dp185
Vsigned-modules
p186
I00
sVimage-file
p187
Varch/alpha/boot/vmlinux.gz
p188
ss(Vdescription
p189
g167
NValpha-generic
p190
tp191
(dp192
Vhardware
p193
VAlpha
p194
sVhardware-long
p195
VDEC Alpha systems with extended kernel start address (Wildfire, Titan, Marvel)
p196
ss(Vimage
p197
g167
tp198
(dp199
Vsuggests
p200
Vaboot, fdutils
p201
sVinstall-stem
p202
Vvmlinuz
p203
ss(Vbase
p204
g167
g172
tp205
(dp206
Vflavours
p207
(lp208
Valpha-generic
p209
aValpha-smp
p210
asVimplicit-flavour
p211
I01
ss(Vbase
p212
Vamd64
p213
tp214
(dp215
Vfeaturesets
p216
(lp217
Vnone
p218
aVrt
p219
asVkernel-arch
p220
Vx86
p221
ss(Vdescription
p222
g213
NVamd64
p223
tp224
(dp225
Vhardware
p226
V64-bit PCs
p227
sVhardware-long
p228
VPCs with AMD64, Intel 64 or VIA Nano processors
p229
ss(Vbuild
p230
g213
tp231
(dp232
Vvdso
p233
I01
sVimage-file
p234
Varch/x86/boot/bzImage
p235
sVdebug-info
p236
I01
ss(Vrelations
p237
g213
tp238
(dp239
Vheaders%gcc-6
p240
Vlinux-compiler-gcc-6-x86 (>= 4.9.82-1+deb9u1~)
p241
sVgcc-6
p242
Vgcc-6 (>= 6.3.0-18+deb9u1~) <!stage1 !cross>, gcc-6-@gnu-type-package@ (>= 6.3.0-18+deb9u1~) <!stage1 cross>
p243
ss(Vimage
p244
g213
tp245
(dp246
Vbreaks
p247
Vxserver-xorg-input-vmmouse (<< 1:13.0.99), qemu-system-x86 (<< 1:2.5+dfsg-1)
p248
sVinstall-stem
p249
Vvmlinuz
p250
sVbootloaders
p251
(lp252
Vgrub-pc
p253
aVgrub-efi-amd64
p254
aVextlinux
p255
ass(Vbase
p256
g213
Vnone
p257
tp258
(dp259
Vflavours
p260
(lp261
Vamd64
p262
ass(Vdescription
p263
g213
g257
Vamd64
p264
tp265
(dp266
Vparts
p267
(lp268
Vxen
p269
ass(Vbase
p270
g213
Vrt
p271
tp272
(dp273
Vflavours
p274
(lp275
Vamd64
p276
ass(Vbase
p277
Varm64
p278
tp279
(dp280
Vfeaturesets
p281
(lp282
Vnone
p283
asVkernel-arch
p284
Varm64
p285
ss(Vdescription
p286
g278
NVarm64
p287
tp288
(dp289
Vhardware
p290
V64-bit ARMv8 machines
p291
ss(Vbuild
p292
g278
tp293
(dp294
Vvdso
p295
I01
sVimage-file
p296
Varch/arm64/boot/Image
p297
sVdebug-info
p298
I01
ss(Vimage
p299
g278
NVarm64
p300
tp301
(dp302
s(Vimage
p303
g278
tp304
(dp305
Vbreaks
p306
Vlibmozjs185-1.0, libmozjs-24-0 (<< 24.2.0-5.1~)
p307
sVinstall-stem
p308
Vvmlinuz
p309
ss(Vbase
p310
g278
Vnone
p311
tp312
(dp313
Vflavours
p314
(lp315
Varm64
p316
ass(Vbase
p317
Varmel
p318
tp319
(dp320
g170
(lp321
g172
asVkernel-arch
p322
Varm
p323
ss(Vbuild
p324
g318
tp325
(dp326
Vsigned-modules
p327
I00
sVimage-file
p328
Varch/arm/boot/zImage
p329
ss(Vimage
p330
g318
NVmarvell
p331
tp332
(dp333
Vrecommends
p334
Vu-boot-tools
p335
sVbreaks
p336
Vflash-kernel (<< 3.57~)
p337
sVcheck-size-with-dtb
p338
I01
sVcheck-size
p339
L2097080L
ss(Vdescription
p340
g318
NVmarvell
p341
tp342
(dp343
Vhardware
p344
VMarvell Kirkwood/Orion
p345
sVhardware-long
p346
VMarvell Kirkwood based systems (SheevaPlug, QNAP TS-119/TS-219, etc)\u000aand Orion 5181, 5182 and 5281 based systems (QNAP TS-109/TS-209, etc)
p347
ss(Vrelations
p348
g318
tp349
(dp350
Vheaders%gcc-6
p351
Vlinux-compiler-gcc-6-arm
p352
ss(Vimage
p353
g318
tp354
(dp355
Vinstall-stem
p356
Vvmlinuz
p357
ss(g204
g318
g172
tp358
(dp359
g207
(lp360
Vmarvell
p361
asg211
I01
ss(Vbase
p362
Varmhf
p363
tp364
(dp365
g170
(lp366
g172
asVkernel-arch
p367
Varm
p368
ss(Vdescription
p369
g363
NVarmmp
p370
tp371
(dp372
Vhardware
p373
VARMv7 multiplatform compatible SoCs
p374
sVhardware-long
p375
VARMv7 multiplatform kernel. See\u000ahttps://wiki.debian.org/DebianKernel/ARMMP for details of supported\u000aplatforms
p376
ss(Vbuild
p377
g363
tp378
(dp379
Vvdso
p380
I01
sVimage-file
p381
Varch/arm/boot/zImage
p382
ss(Vdescription
p383
g363
NVarmmp-lpae
p384
tp385
(dp386
Vhardware
p387
VARMv7 multiplatform compatible SoCs supporting LPAE
p388
sVhardware-long
p389
VARMv7 multiplatform kernel supporting LPAE. See\u000ahttps://wiki.debian.org/DebianKernel/ARMMP for details of supported\u000aplatforms.
p390
ss(Vrelations
p391
g363
tp392
(dp393
Vheaders%gcc-6
p394
Vlinux-compiler-gcc-6-arm
p395
ss(Vimage
p396
g363
tp397
(dp398
Vinstall-stem
p399
Vvmlinuz
p400
ss(g204
g363
g172
tp401
(dp402
g207
(lp403
Varmmp
p404
aVarmmp-lpae
p405
asg211
I01
ss(Vbase
p406
Vhppa
p407
tp408
(dp409
g170
(lp410
g172
asVkernel-arch
p411
Vparisc
p412
ss(Vbuild
p413
g407
tp414
(dp415
Vsigned-modules
p416
I00
sVimage-file
p417
Vvmlinux
p418
ss(Vdescription
p419
g407
NVparisc64-smp
p420
tp421
(dp422
Vhardware
p423
Vmultiprocessor 64-bit PA-RISC
p424
sVhardware-long
p425
VHP PA-RISC 64-bit SMP systems with support for more than 4 GB RAM
p426
ss(Vbase
p427
g407
NVparisc64-smp
p428
tp429
(dp430
Vcflags
p431
V-fno-cse-follow-jumps
p432
sVoverride-host-type
p433
Vhppa64-linux-gnu
p434
ss(Vrelations
p435
g407
tp436
(dp437
Vgcc-6
p438
Vgcc-6 <!stage1 !cross>, binutils-hppa64-linux-gnu <!stage1 !cross>, gcc-6-hppa64-linux-gnu <!stage1 !cross>, gcc-6-hppa-linux-gnu <!stage1 cross>, binutils-hppa64-linux-gnu <!stage1 cross>, gcc-6-hppa64-linux-gnu <!stage1 cross>
p439
ss(Vdescription
p440
g407
NVparisc
p441
tp442
(dp443
Vhardware
p444
V32-bit PA-RISC
p445
sVhardware-long
p446
VHP PA-RISC 32-bit systems with max 4 GB RAM
p447
ss(Vimage
p448
g407
tp449
(dp450
Vsuggests
p451
Vpalo
p452
sVinstall-stem
p453
Vvmlinux
p454
ss(g204
g407
g172
tp455
(dp456
g207
(lp457
Vparisc
p458
aVparisc64-smp
p459
asg211
I01
ss(Vbase
p460
Vi386
p461
tp462
(dp463
Vfeaturesets
p464
(lp465
Vnone
p466
aVrt
p467
asVkernel-arch
p468
Vx86
p469
ss(Vbuild
p470
g461
tp471
(dp472
Vvdso
p473
I01
sVimage-file
p474
Varch/x86/boot/bzImage
p475
ss(Vdescription
p476
g461
NV686-pae
p477
tp478
(dp479
Vhardware
p480
Vmodern PCs
p481
sVhardware-long
p482
VPCs with one or more processors supporting PAE
p483
sVparts
p484
(lp485
Vpae
p486
ass(Vdescription
p487
g461
tp488
(dp489
Vpart-long-pae
p490
VThis kernel requires PAE (Physical Address Extension).\u000aThis feature is supported by the Intel Pentium Pro/II/III/4/4M/D, Xeon,\u000aCore and Atom; AMD Geode NX, Athlon (K7), Duron, Opteron, Sempron,\u000aTurion or Phenom; Transmeta Efficeon; VIA C7; and some other processors.
p491
ss(Vbuild
p492
g461
NV686-pae
p493
tp494
(dp495
Vdebug-info
p496
I01
ss(Vdescription
p497
g461
NV686
p498
tp499
(dp500
Vhardware
p501
Volder PCs
p502
sVhardware-long
p503
VPCs with one or more processors not supporting PAE
p504
ss(Vrelations
p505
g461
tp506
(dp507
Vheaders%gcc-6
p508
Vlinux-compiler-gcc-6-x86 (>= 4.9.82-1+deb9u1~)
p509
sVgcc-6
p510
Vgcc-6 (>= 6.3.0-18+deb9u1~) <!stage1 !cross>, gcc-6-@gnu-type-package@ (>= 6.3.0-18+deb9u1~) <!stage1 cross>
p511
ss(Vimage
p512
g461
tp513
(dp514
Vbreaks
p515
Vxserver-xorg-input-vmmouse (<< 1:13.0.99), qemu-system-x86 (<< 1:2.5+dfsg-1)
p516
sVinstall-stem
p517
Vvmlinuz
p518
sVbootloaders
p519
(lp520
Vgrub-pc
p521
aVextlinux
p522
ass(Vbase
p523
g461
Vnone
p524
tp525
(dp526
Vflavours
p527
(lp528
V686
p529
aV686-pae
p530
ass(Vdescription
p531
g461
g524
V686-pae
p532
tp533
(dp534
Vparts
p535
(lp536
Vxen
p537
ass(Vbase
p538
g461
Vrt
p539
tp540
(dp541
Vflavours
p542
(lp543
V686-pae
p544
ass(Vbase
p545
Vm68k
p546
tp547
(dp548
Vcflags
p549
V-ffreestanding
p550
sg170
(lp551
g172
asVkernel-arch
p552
Vm68k
p553
ss(Vbuild
p554
g546
tp555
(dp556
Vsigned-modules
p557
I00
sVimage-file
p558
Vvmlinux.gz
p559
ss(Vdescription
p560
g546
NVm68k
p561
tp562
(dp563
Vhardware
p564
VMotorola MC68020+ family
p565
ss(Vimage
p566
g546
tp567
(dp568
Vsuggests
p569
Vvmelilo, fdutils
p570
sVinstall-stem
p571
Vvmlinuz
p572
ss(g204
g546
g172
tp573
(dp574
g207
(lp575
Vm68k
p576
asg211
I01
ss(Vbase
p577
Vmips
p578
tp579
(dp580
g170
(lp581
g172
asVkernel-arch
p582
Vmips
p583
ss(Vbuild
p584
g578
tp585
(dp586
Vsigned-modules
p587
I00
sVimage-file
p588
Vvmlinux
p589
ss(Vimage
p590
g578
NV4kc-malta
p591
tp592
(dp593
Vconfigs
p594
(lp595
Vkernelarch-mips/config.malta
p596
aVkernelarch-mips/config.mips32r2
p597
ass(Vimage
p598
g578
NV5kc-malta
p599
tp600
(dp601
Vconfigs
p602
(lp603
Vkernelarch-mips/config.malta
p604
aVkernelarch-mips/config.mips64r2
p605
ass(Vdescription
p606
g578
NVocteon
p607
tp608
(dp609
Vhardware
p610
VOcteon
p611
sVhardware-long
p612
VCavium Networks Octeon
p613
ss(Vimage
p614
g578
NVocteon
p615
tp616
(dp617
Vconfigs
p618
(lp619
Vkernelarch-mips/config.octeon
p620
ass(Vimage
p621
g578
tp622
(dp623
Vinstall-stem
p624
Vvmlinux
p625
ss(Vdescription
p626
g578
NV5kc-malta
p627
tp628
(dp629
Vhardware
p630
VMIPS Malta (64-bit)
p631
sVhardware-long
p632
VMIPS Malta boards (64-bit)
p633
ss(Vdescription
p634
g578
NV4kc-malta
p635
tp636
(dp637
Vhardware
p638
VMIPS Malta
p639
sVhardware-long
p640
VMIPS Malta boards
p641
ss(g204
g578
g172
tp642
(dp643
g207
(lp644
V4kc-malta
p645
aV5kc-malta
p646
aVocteon
p647
asg211
I01
ss(Vbase
p648
Vmipsel
p649
tp650
(dp651
g170
(lp652
g172
asVkernel-arch
p653
Vmips
p654
ss(Vimage
p655
g649
NVloongson-3
p656
tp657
(dp658
Vconfigs
p659
(lp660
Vkernelarch-mips/config.loongson-3
p661
ass(Vbuild
p662
g649
tp663
(dp664
Vsigned-modules
p665
I00
sVimage-file
p666
Vvmlinux
p667
ss(Vimage
p668
g649
NV4kc-malta
p669
tp670
(dp671
Vconfigs
p672
(lp673
Vkernelarch-mips/config.malta
p674
aVkernelarch-mips/config.mips32r2
p675
ass(Vimage
p676
g649
NV5kc-malta
p677
tp678
(dp679
Vconfigs
p680
(lp681
Vkernelarch-mips/config.malta
p682
aVkernelarch-mips/config.mips64r2
p683
ass(Vdescription
p684
g649
NVocteon
p685
tp686
(dp687
Vhardware
p688
VOcteon
p689
sVhardware-long
p690
VCavium Networks Octeon
p691
ss(Vdescription
p692
g649
NVloongson-3
p693
tp694
(dp695
Vhardware
p696
VLoongson 3A/3B
p697
sVhardware-long
p698
VLoongson 3A or 3B based systems (e.g. from Loongson or Lemote)
p699
ss(Vimage
p700
g649
NVocteon
p701
tp702
(dp703
Vconfigs
p704
(lp705
Vkernelarch-mips/config.octeon
p706
ass(Vimage
p707
g649
tp708
(dp709
Vinstall-stem
p710
Vvmlinux
p711
ss(Vdescription
p712
g649
NV5kc-malta
p713
tp714
(dp715
Vhardware
p716
VMIPS Malta (64-bit)
p717
sVhardware-long
p718
VMIPS Malta boards (64-bit)
p719
ss(Vdescription
p720
g649
NV4kc-malta
p721
tp722
(dp723
Vhardware
p724
VMIPS Malta
p725
sVhardware-long
p726
VMIPS Malta boards
p727
ss(g204
g649
g172
tp728
(dp729
g207
(lp730
V4kc-malta
p731
aV5kc-malta
p732
aVloongson-3
p733
aVocteon
p734
asg211
I01
ss(Vbase
p735
Vmipsn32
p736
tp737
(dp738
Vfeaturesets
p739
(lp740
sVkernel-arch
p741
Vmips
p742
ss(Vbase
p743
Vmipsn32el
p744
tp745
(dp746
Vfeaturesets
p747
(lp748
sVkernel-arch
p749
Vmips
p750
ss(Vbase
p751
Vmips64
p752
tp753
(dp754
g170
(lp755
g172
asVkernel-arch
p756
Vmips
p757
ss(Vbuild
p758
g752
tp759
(dp760
Vsigned-modules
p761
I00
sVimage-file
p762
Vvmlinux
p763
ss(Vimage
p764
g752
NV5kc-malta
p765
tp766
(dp767
Vconfigs
p768
(lp769
Vkernelarch-mips/config.malta
p770
aVkernelarch-mips/config.mips64r2
p771
ass(Vdescription
p772
g752
NVocteon
p773
tp774
(dp775
Vhardware
p776
VOcteon
p777
sVhardware-long
p778
VCavium Networks Octeon
p779
ss(Vimage
p780
g752
tp781
(dp782
Vinstall-stem
p783
Vvmlinux
p784
ss(Vdescription
p785
g752
NV5kc-malta
p786
tp787
(dp788
Vhardware
p789
VMIPS Malta
p790
sVhardware-long
p791
VMIPS Malta boards
p792
ss(Vimage
p793
g752
NVocteon
p794
tp795
(dp796
Vconfigs
p797
(lp798
Vkernelarch-mips/config.octeon
p799
ass(g204
g752
g172
tp800
(dp801
g207
(lp802
V5kc-malta
p803
aVocteon
p804
asg211
I01
ss(Vbase
p805
Vmips64el
p806
tp807
(dp808
g170
(lp809
g172
asVkernel-arch
p810
Vmips
p811
ss(Vimage
p812
g806
NVloongson-3
p813
tp814
(dp815
Vconfigs
p816
(lp817
Vkernelarch-mips/config.loongson-3
p818
ass(Vbuild
p819
g806
tp820
(dp821
Vsigned-modules
p822
I00
sVimage-file
p823
Vvmlinux
p824
ss(Vimage
p825
g806
NV5kc-malta
p826
tp827
(dp828
Vconfigs
p829
(lp830
Vkernelarch-mips/config.malta
p831
aVkernelarch-mips/config.mips64r2
p832
ass(Vdescription
p833
g806
NVocteon
p834
tp835
(dp836
Vhardware
p837
VOcteon
p838
sVhardware-long
p839
VCavium Networks Octeon
p840
ss(Vdescription
p841
g806
NVloongson-3
p842
tp843
(dp844
Vhardware
p845
VLoongson 3A/3B
p846
sVhardware-long
p847
VLoongson 3A or 3B based systems (e.g. from Loongson or Lemote)
p848
ss(Vimage
p849
g806
tp850
(dp851
Vinstall-stem
p852
Vvmlinux
p853
ss(Vdescription
p854
g806
NV5kc-malta
p855
tp856
(dp857
Vhardware
p858
VMIPS Malta
p859
sVhardware-long
p860
VMIPS Malta boards
p861
ss(Vimage
p862
g806
NVocteon
p863
tp864
(dp865
Vconfigs
p866
(lp867
Vkernelarch-mips/config.octeon
p868
ass(g204
g806
g172
tp869
(dp870
g207
(lp871
V5kc-malta
p872
aVloongson-3
p873
aVocteon
p874
asg211
I01
ss(Vbase
p875
Vpowerpc
p876
tp877
(dp878
g170
(lp879
g172
asVkernel-arch
p880
Vpowerpc
p881
ss(Vdescription
p882
g876
NVpowerpc64
p883
tp884
(dp885
Vhardware
p886
V64-bit PowerPC
p887
ss(Vbuild
p888
g876
tp889
(dp890
Vvdso
p891
I01
sVimage-file
p892
Vvmlinux
p893
ss(Vimage
p894
g876
NVpowerpc-smp
p895
tp896
(dp897
Vconfigs
p898
(lp899
Vpowerpc/config.powerpc
p900
aVpowerpc/config.powerpc-smp
p901
ass(Vdescription
p902
g876
NVpowerpc
p903
tp904
(dp905
Vhardware
p906
Vuniprocessor 32-bit PowerPC
p907
ss(Vimage
p908
g876
NVpowerpc64
p909
tp910
(dp911
Vconfigs
p912
(lp913
Vkernelarch-powerpc/config-arch-64
p914
aVkernelarch-powerpc/config-arch-64-be
p915
ass(Vdescription
p916
g876
NVpowerpc-smp
p917
tp918
(dp919
Vhardware
p920
Vmultiprocessor 32-bit PowerPC
p921
ss(Vimage
p922
g876
tp923
(dp924
Vsuggests
p925
Vmkvmlinuz
p926
sVinstall-stem
p927
Vvmlinux
p928
sVconfigs
p929
(lp930
ss(g204
g876
g172
tp931
(dp932
g207
(lp933
Vpowerpc
p934
aVpowerpc-smp
p935
aVpowerpc64
p936
asg211
I01
ss(Vbase
p937
Vpowerpcspe
p938
tp939
(dp940
g170
(lp941
g172
asVkernel-arch
p942
Vpowerpc
p943
ss(Vbuild
p944
g938
tp945
(dp946
Vsigned-modules
p947
I00
sVimage-file
p948
Vvmlinux
p949
sVvdso
p950
I01
ss(Vimage
p951
g938
tp952
(dp953
Vsuggests
p954
Vmkvmlinuz
p955
sVinstall-stem
p956
Vvmlinux
p957
ss(Vdescription
p958
g938
tp959
(dp960
Vhardware
p961
V32-bit PowerPC with SPE (instead of AltiVec) with SMP support
p962
ss(g204
g938
g172
tp963
(dp964
g207
(lp965
Vpowerpcspe
p966
asg211
I01
ss(Vbase
p967
Vppc64
p968
tp969
(dp970
g170
(lp971
g172
asVkernel-arch
p972
Vpowerpc
p973
ss(Vdescription
p974
g968
NVpowerpc64
p975
tp976
(dp977
Vhardware
p978
V64-bit PowerPC
p979
ss(Vbuild
p980
g968
tp981
(dp982
Vsigned-modules
p983
I00
sVimage-file
p984
Vvmlinux
p985
sVvdso
p986
I01
ss(Vimage
p987
g968
NVpowerpc64
p988
tp989
(dp990
Vconfigs
p991
(lp992
Vkernelarch-powerpc/config-arch-64
p993
aVkernelarch-powerpc/config-arch-64-be
p994
ass(Vimage
p995
g968
tp996
(dp997
Vsuggests
p998
Vmkvmlinuz
p999
sVinstall-stem
p1000
Vvmlinux
p1001
sVconfigs
p1002
(lp1003
ss(g204
g968
g172
tp1004
(dp1005
g207
(lp1006
Vpowerpc64
p1007
asg211
I01
ss(Vbase
p1008
Vppc64el
p1009
tp1010
(dp1011
g170
(lp1012
g172
asVkernel-arch
p1013
Vpowerpc
p1014
ss(Vdescription
p1015
g1009
NVpowerpc64le
p1016
tp1017
(dp1018
Vhardware
p1019
VLittle-endian 64-bit PowerPC
p1020
ss(Vbuild
p1021
g1009
tp1022
(dp1023
Vvdso
p1024
I01
sVimage-file
p1025
Vvmlinux
p1026
ss(Vimage
p1027
g1009
tp1028
(dp1029
Vsuggests
p1030
Vmkvmlinuz
p1031
sVinstall-stem
p1032
Vvmlinux
p1033
sVconfigs
p1034
(lp1035
ss(Vimage
p1036
g1009
NVpowerpc64le
p1037
tp1038
(dp1039
Vconfigs
p1040
(lp1041
Vkernelarch-powerpc/config-arch-64
p1042
aVkernelarch-powerpc/config-arch-64-le
p1043
ass(g204
g1009
g172
tp1044
(dp1045
g207
(lp1046
Vpowerpc64le
p1047
asg211
I01
ss(Vbase
p1048
Vs390
p1049
tp1050
(dp1051
Vfeaturesets
p1052
(lp1053
sVkernel-arch
p1054
Vs390
p1055
ss(Vbase
p1056
Vs390x
p1057
tp1058
(dp1059
g170
(lp1060
g172
asVkernel-arch
p1061
Vs390
p1062
ss(Vdescription
p1063
g1057
NVs390x
p1064
tp1065
(dp1066
Vhardware
p1067
VIBM zSeries
p1068
ss(Vbuild
p1069
g1057
tp1070
(dp1071
Vvdso
p1072
I01
sVimage-file
p1073
Varch/s390/boot/image
p1074
ss(Vbuild
p1075
g1057
NVs390x
p1076
tp1077
(dp1078
Vdebug-info
p1079
I01
ss(Vrelations
p1080
g1057
tp1081
(dp1082
Vheaders%gcc-6
p1083
Vlinux-compiler-gcc-6-s390
p1084
ss(Vimage
p1085
g1057
tp1086
(dp1087
Vinstall-stem
p1088
Vvmlinuz
p1089
sVbootloaders
p1090
(lp1091
Vs390-tools
p1092
ass(g204
g1057
g172
tp1093
(dp1094
g207
(lp1095
Vs390x
p1096
asg211
I01
ss(Vbase
p1097
Vsh3
p1098
tp1099
(dp1100
Vfeaturesets
p1101
(lp1102
sVkernel-arch
p1103
Vsh
p1104
ss(Vbase
p1105
Vsh4
p1106
tp1107
(dp1108
g170
(lp1109
g172
asVkernel-arch
p1110
Vsh
p1111
ss(Vbuild
p1112
g1106
tp1113
(dp1114
Vsigned-modules
p1115
I00
sVimage-file
p1116
Varch/sh/boot/zImage
p1117
ss(Vdescription
p1118
g1106
NVsh7751r
p1119
tp1120
(dp1121
Vhardware
p1122
Vsh7751r
p1123
sVhardware-long
p1124
VRenesas SH7751R R2D plus board
p1125
ss(Vdescription
p1126
g1106
NVsh7785lcr
p1127
tp1128
(dp1129
Vhardware
p1130
Vsh7785lcr
p1131
sVhardware-long
p1132
VRenesas SH7785 reference board
p1133
ss(Vimage
p1134
g1106
tp1135
(dp1136
Vinstall-stem
p1137
Vvmlinuz
p1138
ss(Vimage
p1139
g1106
NVsh7785lcr
p1140
tp1141
(dp1142
Vrecommends
p1143
Vu-boot-tools
p1144
sVcheck-size
p1145
L4194304L
ss(g204
g1106
g172
tp1146
(dp1147
g207
(lp1148
Vsh7751r
p1149
aVsh7785lcr
p1150
asg211
I01
ss(Vbase
p1151
Vsparc
p1152
tp1153
(dp1154
Vfeaturesets
p1155
(lp1156
sVkernel-arch
p1157
Vsparc
p1158
ss(Vbase
p1159
Vsparc64
p1160
tp1161
(dp1162
g170
(lp1163
g172
asVkernel-arch
p1164
Vsparc
p1165
ss(Vbuild
p1166
g1160
tp1167
(dp1168
Vsigned-modules
p1169
I00
sVimage-file
p1170
Varch/sparc/boot/zImage
p1171
ss(Vimage
p1172
g1160
NVsparc64
p1173
tp1174
(dp1175
Vconfigs
p1176
(lp1177
Vkernelarch-sparc/config-up
p1178
ass(Vimage
p1179
g1160
NVsparc64-smp
p1180
tp1181
(dp1182
Vconfigs
p1183
(lp1184
Vkernelarch-sparc/config-smp
p1185
ass(Vimage
p1186
g1160
tp1187
(dp1188
Vsuggests
p1189
Vsilo, fdutils
p1190
sVinstall-stem
p1191
Vvmlinuz
p1192
sVconfigs
p1193
(lp1194
ss(Vdescription
p1195
g1160
NVsparc64-smp
p1196
tp1197
(dp1198
Vhardware
p1199
Vmultiprocessor 64-bit UltraSPARC
p1200
ss(Vdescription
p1201
g1160
NVsparc64
p1202
tp1203
(dp1204
Vhardware
p1205
Vuniprocessor 64-bit UltraSPARC
p1206
ss(g204
g1160
g172
tp1207
(dp1208
g207
(lp1209
Vsparc64
p1210
aVsparc64-smp
p1211
asg211
I01
ss(Vbase
p1212
Vtilegx
p1213
tp1214
(dp1215
Vfeaturesets
p1216
(lp1217
sVkernel-arch
p1218
Vtile
p1219
ss(Vbase
p1220
Vx32
p1221
tp1222
(dp1223
Vfeaturesets
p1224
(lp1225
sVkernel-arch
p1226
Vx86
p1227
ss(Vdescription
p1228
NVrt
p1229
tp1230
(dp1231
Vparts
p1232
(lp1233
Vrt
p1234
asVpart-long-rt
p1235
VThis kernel includes the PREEMPT_RT realtime patch set.
p1236
sVpart-short-rt
p1237
VPREEMPT_RT
p1238
ss(Vabi
p1239
Ng1229
tp1240
(dp1241
Vignore-changes
p1242
(lp1243
V*
p1244
ass(Vversion
p1245
tp1246
(dp1247
Vupstream
p1248
V4.9
p1249
sVsource
p1250
V4.9.258-1
p1251
sVabiname
p1252
V4.9.0-15
p1253
sVabiname_base
p1254
V4.9.0
p1255
ss.