cdebian_linux.config
ConfigCore
p0
(tRp1
(Vabi
p2
tp3
(dp4
Vabiname
p5
V0.puavo1
p6
sVignore-changes
p7
(lp8
V__cpuhp_*
p9
aV__udp_gso_segment
p10
aVbpf_analyzer
p11
aVbpf_offload_dev_create
p12
aVbpf_verifier_log_write
p13
aVcxl_*
p14
aVdax_flush
p15
aVieee80211_nullfunc_get
p16
aVinet_add_protocol
p17
aVinet_del_protocol
p18
aViommu_device_*
p19
aVmm_iommu_*
p20
aVmv_mbus_*
p21
aVperf_*
p22
aVregister_cxl_calls
p23
aVregister_key_type
p24
aVunregister_cxl_calls
p25
aV*_hw_breakpoint
p26
aVmodule:drivers/crypto/ccp/*
p27
aVmodule:drivers/hv/*
p28
aVmodule:drivers/gpu/drm/sun4i/*
p29
aVmodule:drivers/iio/**
p30
aVmodule:drivers/misc/cxl/*
p31
aVmodule:drivers/misc/lis3lv02d/*
p32
aVmodule:drivers/mtd/nand/*
p33
aVmodule:drivers/net/ethernet/**
p34
aVmodule:drivers/net/wireless/**
p35
aVmodule:drivers/nvdimm/*
p36
aVmodule:drivers/nvme/**
p37
aVmodule:drivers/power/supply/bq27xxx_battery
p38
aVmodule:drivers/scsi/cxgbi/*
p39
aVmodule:drivers/scsi/libiscs*
p40
aVmodule:drivers/scsi/qla2xxx/qla2xxx
p41
aVmodule:drivers/scsi/ufs/*
p42
aVmodule:drivers/target/**
p43
aVmodule:drivers/usb/chipidea/**
p44
aVmodule:drivers/usb/gadget/**
p45
aVmodule:drivers/usb/host/**
p46
aVmodule:drivers/usb/musb/**
p47
aVmodule:fs/nfs/**
p48
aVmodule:net/ceph/libceph
p49
aVmodule:net/l2tp/**
p50
aVmodule:net/openvswitch/**
p51
aVmodule:net/rxrpc/rxrpc
p52
aVmodule:net/sctp/**
p53
aVmodule:sound/core/seq/**
p54
aVmodule:sound/firewire/snd-firewire-lib
p55
aVmodule:sound/pci/hda/*
p56
aVbtree_*
p57
aVvisitor*
p58
aVcan_rx_register
p59
aVip6_xmit
p60
aVmodule:net/dccp/dccp
p61
aVmodule:net/rds/rds
p62
aVdevfreq_*
p63
aVdevm_devfreq_*
p64
aVupdate_devfreq
p65
aVmodule:drivers/infiniband/**
p66
aVacpi_ec_add_query_handler
p67
aVacpi_ec_remove_query_handler
p68
aVfirst_ec
p69
aVdebugfs_create_automount
p70
aVmodule:drivers/iio/imu/inv_mpu6050/*
p71
aVdrm_crtc_accurate_vblank_count
p72
aVacpi_nfit_desc_init
p73
aVacpi_nfit_init
p74
aVloop_register_transfer
p75
aVxen_xlate_*
p76
aVnf_nat_masquerade_ipv4_register_notifier
p77
aVnf_nat_masquerade_ipv6_register_notifier
p78
aVdfltcc_*
p79
aVmodule:drivers/scsi/hisi_sas/*
p80
aV__gfn_*
p81
aV__kvmhv_*
p82
aV__kvm_*
p83
aV__xive_vm_h_*
p84
aVgfn_*
p85
aVh_ipi_redirect
p86
aVhalt_poll_ns*
p87
aVkvm_*
p88
aVkvmhv_*
p89
aVkvmppc_*
p90
aVmark_page_dirty
p91
aVvcpu_*
p92
aVmodule:arch/powerpc/kvm/*
p93
aVmodule:arch/s390/kvm/*
p94
aVmodule:arch/x86/kvm/*
p95
aVuv_info
p96
aVxhci_init_driver
p97
aVxfrm_bpf_md_dst
p98
ass(Vbase
p99
tp100
(dp101
Varches
p102
(lp103
Valpha
p104
aVamd64
p105
aVarm64
p106
aVarm64ilp32
p107
aVarmel
p108
aVarmhf
p109
aVhppa
p110
aVi386
p111
aVia64
p112
aVm68k
p113
aVmips
p114
aVmips64
p115
aVmips64el
p116
aVmips64r6
p117
aVmips64r6el
p118
aVmipsel
p119
aVmipsn32
p120
aVmipsn32el
p121
aVmipsn32r6
p122
aVmipsn32r6el
p123
aVmipsr6
p124
aVmipsr6el
p125
aVpowerpc
p126
aVppc64
p127
aVppc64el
p128
aVriscv64
p129
aVs390
p130
aVs390x
p131
aVsh3
p132
aVsh4
p133
aVsparc
p134
aVsparc64
p135
aVx32
p136
asVcompiler
p137
Vgcc-12
p138
sVfeaturesets
p139
(lp140
Vnone
p141
aVrt
p142
ass(Vbuild
p143
tp144
(dp145
Vsigned-code
p146
I00
sVtrusted-certs
p147
Vdebian/certs/debian-uefi-certs.pem
p148
ss(Vbase
p149
NVrt
p150
tp151
(dp152
Venabled
p153
I00
ss(Vdescription
p154
tp155
(dp156
Vpart-long-up
p157
VThis kernel is not suitable for SMP (multi-processor, multi-core or hyper-threaded) systems.
p158
ss(Vimage
p159
tp160
(dp161
Vinitramfs-generators
p162
(lp163
Vinitramfs-tools
p164
aVinitramfs-fallback
p165
asVbreaks
p166
(lp167
Vfwupdate (<< 12-7)
p168
aVwireless-regdb (<< 2019.06.03-1~)
p169
asVrecommends
p170
(lp171
Vapparmor
p172
ass(Vrelations
p173
tp174
(dp175
Vgcc-12
p176
Vgcc-12 <!stage1 !cross !pkg.linux.nokernel>, gcc-12-@gnu-type-package@ <!stage1 cross !pkg.linux.nokernel>
p177
sVinitramfs-fallback
p178
Vlinux-initramfs-tool
p179
sVinitramfs-tools
p180
Vinitramfs-tools (>= 0.120+deb8u2)
p181
ss(Vbase
p182
Valpha
p183
tp184
(dp185
Vdefault-flavour
p186
Valpha-smp
p187
sVkernel-arch
p188
Valpha
p189
sVfeaturesets
p190
(lp191
Vnone
p192
ass(Vbuild
p193
g183
tp194
(dp195
Vimage-file
p196
Varch/alpha/boot/vmlinux.gz
p197
ss(Vimage
p198
g183
tp199
(dp200
Vsuggests
p201
(lp202
Vaboot
p203
aVfdutils
p204
asVinstall-stem
p205
Vvmlinuz
p206
ss(Vdescription
p207
g183
NValpha-generic
p208
tp209
(dp210
Vhardware
p211
VAlpha
p212
sVhardware-long
p213
VDEC Alpha systems with extended kernel start address (Wildfire, Titan, Marvel)
p214
ss(Vdescription
p215
g183
NValpha-smp
p216
tp217
(dp218
Vhardware
p219
VAlpha SMP
p220
sVhardware-long
p221
VDEC Alpha SMP systems with extended kernel start address (Wildfire, Titan, Marvel)
p222
ss(Vbase
p223
g183
g192
tp224
(dp225
Vflavours
p226
(lp227
Valpha-generic
p228
aValpha-smp
p229
asVimplicit-flavour
p230
I01
ss(Vbase
p231
Vamd64
p232
tp233
(dp234
Vfeaturesets
p235
(lp236
Vnone
p237
aVrt
p238
asVkernel-arch
p239
Vx86
p240
ss(Vbuild
p241
g232
tp242
(dp243
Vimage-file
p244
Varch/x86/boot/bzImage
p245
sVsigned-code
p246
I01
sVvdso
p247
I01
ss(Vimage
p248
g232
tp249
(dp250
Vbootloaders
p251
(lp252
Vgrub-pc
p253
aVgrub-efi-amd64
p254
aVextlinux
p255
asVinstall-stem
p256
Vvmlinuz
p257
ss(Vrelations
p258
g232
tp259
(dp260
Vheaders%gcc-12
p261
Vlinux-compiler-gcc-12-x86
p262
ss(Vdescription
p263
g232
NVamd64
p264
tp265
(dp266
Vhardware
p267
V64-bit PCs
p268
sVhardware-long
p269
VPCs with AMD64, Intel 64 or VIA Nano processors
p270
ss(Vdescription
p271
g232
NVcloud-amd64
p272
tp273
(dp274
Vhardware
p275
Vx86-64 cloud
p276
sVhardware-long
p277
Vcloud platforms including Amazon EC2, Microsoft Azure, and Google Compute Engine
p278
ss(Vbase
p279
g232
Vnone
p280
tp281
(dp282
Vflavours
p283
(lp284
Vamd64
p285
aVcloud-amd64
p286
asVdefault-flavour
p287
Vamd64
p288
sVquick-flavour
p289
Vcloud-amd64
p290
ss(Vimage
p291
g232
g280
Vcloud-amd64
p292
tp293
(dp294
Vconfigs
p295
(lp296
Vconfig.cloud
p297
aVamd64/config.cloud-amd64
p298
ass(Vbase
p299
g232
Vrt
p300
tp301
(dp302
Vflavours
p303
(lp304
Vamd64
p305
ass(Vbase
p306
Varm64
p307
tp308
(dp309
Vcompat-deb-arch
p310
Varmhf
p311
sVcompat-gnu-type
p312
Varm-linux-gnueabihf
p313
sVkernel-arch
p314
Varm64
p315
sVfeaturesets
p316
(lp317
Vnone
p318
aVrt
p319
ass(Vbuild
p320
g307
tp321
(dp322
Vimage-file
p323
Varch/arm64/boot/Image
p324
sVsigned-code
p325
I01
sVvdso
p326
I01
ss(Vimage
p327
g307
tp328
(dp329
Vinstall-stem
p330
Vvmlinuz
p331
ss(Vdescription
p332
g307
NVarm64
p333
tp334
(dp335
Vhardware
p336
V64-bit ARMv8 machines
p337
ss(Vdescription
p338
g307
NVcloud-arm64
p339
tp340
(dp341
Vhardware
p342
Varm64 cloud
p343
sVhardware-long
p344
Vcloud platforms supporting arm64 virtual machines
p345
ss(Vimage
p346
g307
NVarm64
p347
tp348
(dp349
s(Vrelations
p350
g307
tp351
(dp352
Vgcc-12
p353
Vgcc-12 <!stage1 !cross !pkg.linux.nokernel>, gcc-12-aarch64-linux-gnu <!stage1 cross !pkg.linux.nokernel>, gcc-arm-linux-gnueabihf <!stage1 !pkg.linux.nokernel>
p354
sVheaders%gcc-12
p355
Vgcc-12
p356
ss(Vbase
p357
g307
Vnone
p358
tp359
(dp360
Vflavours
p361
(lp362
Varm64
p363
aVcloud-arm64
p364
asVdefault-flavour
p365
Varm64
p366
sVquick-flavour
p367
Vcloud-arm64
p368
ss(Vimage
p369
g307
g358
Vcloud-arm64
p370
tp371
(dp372
Vconfigs
p373
(lp374
Vconfig.cloud
p375
aVarm64/config.cloud-arm64
p376
ass(Vbase
p377
g307
Vrt
p378
tp379
(dp380
Vflavours
p381
(lp382
Varm64
p383
ass(Vbase
p384
Varm64ilp32
p385
tp386
(dp387
Vkernel-arch
p388
Varm64
p389
sVfeaturesets
p390
(lp391
ss(Vbase
p392
Varmel
p393
tp394
(dp395
Vkernel-arch
p396
Varm
p397
sg190
(lp398
g192
ass(Vbuild
p399
g393
tp400
(dp401
Vimage-file
p402
Varch/arm/boot/zImage
p403
sVuncompressed-image-file
p404
Varch/arm/boot/Image
p405
ss(Vimage
p406
g393
tp407
(dp408
Vinstall-stem
p409
Vvmlinuz
p410
ss(Vrelations
p411
g393
tp412
(dp413
Vheaders%gcc-12
p414
Vlinux-compiler-gcc-12-arm
p415
ss(Vdescription
p416
g393
NVmarvell
p417
tp418
(dp419
Vhardware
p420
VMarvell Kirkwood/Orion
p421
sVhardware-long
p422
VMarvell Kirkwood and Orion based systems (https://wiki.debian.org/ArmEabiPort#Supported_hardware)
p423
ss(Vdescription
p424
g393
NVrpi
p425
tp426
(dp427
Vhardware
p428
VRaspberry Pi Zero, Zero W and 1
p429
sVhardware-long
p430
VRaspberry Pi Zero, Zero W and 1 based systems
p431
ss(Vimage
p432
g393
NVmarvell
p433
tp434
(dp435
Vrecommends
p436
(lp437
Vu-boot-tools
p438
asVcheck-size
p439
I2729712
sVcheck-size-with-dtb
p440
I01
ss(g223
g393
g192
tp441
(dp442
g226
(lp443
Vmarvell
p444
aVrpi
p445
asg230
I01
ss(Vbase
p446
Varmhf
p447
tp448
(dp449
Vfeaturesets
p450
(lp451
Vnone
p452
aVrt
p453
asVkernel-arch
p454
Varm
p455
ss(Vbuild
p456
g447
tp457
(dp458
Vimage-file
p459
Varch/arm/boot/zImage
p460
sVvdso
p461
I01
ss(Vimage
p462
g447
tp463
(dp464
Vinstall-stem
p465
Vvmlinuz
p466
ss(Vrelations
p467
g447
tp468
(dp469
Vheaders%gcc-12
p470
Vlinux-compiler-gcc-12-arm
p471
ss(Vdescription
p472
g447
NVarmmp
p473
tp474
(dp475
Vhardware
p476
VARMv7 multiplatform compatible SoCs
p477
sVhardware-long
p478
VARMv7 multiplatform kernel. See https://wiki.debian.org/DebianKernel/ARMMP for details of supported platforms
p479
ss(Vdescription
p480
g447
NVarmmp-lpae
p481
tp482
(dp483
Vhardware
p484
VARMv7 multiplatform compatible SoCs supporting LPAE
p485
sVhardware-long
p486
VARMv7 multiplatform kernel supporting LPAE. See https://wiki.debian.org/DebianKernel/ARMMP for details of supported platforms.
p487
ss(Vbase
p488
g447
Vnone
p489
tp490
(dp491
Vflavours
p492
(lp493
Varmmp
p494
aVarmmp-lpae
p495
asVdefault-flavour
p496
Varmmp
p497
ss(Vbase
p498
g447
Vrt
p499
tp500
(dp501
Vflavours
p502
(lp503
Varmmp
p504
ass(Vbase
p505
Vhppa
p506
tp507
(dp508
Vdefault-flavour
p509
Vparisc
p510
sVkernel-arch
p511
Vparisc
p512
sg190
(lp513
g192
ass(Vbuild
p514
g506
tp515
(dp516
Vimage-file
p517
Varch/parisc/boot/bzImage
p518
ss(Vimage
p519
g506
tp520
(dp521
Vsuggests
p522
(lp523
Vpalo
p524
asVinstall-stem
p525
Vvmlinuz
p526
ss(Vrelations
p527
g506
tp528
(dp529
Vgcc-12
p530
Vgcc-12 <!stage1 !cross !pkg.linux.nokernel>, gcc-12-hppa-linux-gnu <!stage1 cross !pkg.linux.nokernel>, gcc-hppa-linux-gnu <!stage1 cross !pkg.linux.nokernel>, binutils-hppa64-linux-gnu:native <!stage1 !pkg.linux.nokernel>, gcc-12-hppa64-linux-gnu:native <!stage1 !pkg.linux.nokernel>
p531
ss(Vdescription
p532
g506
NVparisc
p533
tp534
(dp535
Vhardware
p536
V32-bit PA-RISC
p537
sVhardware-long
p538
VHP PA-RISC 32-bit systems with max 4 GB RAM
p539
ss(Vrelations
p540
g506
NVparisc
p541
tp542
(dp543
Vheaders%gcc-12
p544
Vgcc-12
p545
ss(Vbase
p546
g506
NVparisc64
p547
tp548
(dp549
Vcflags
p550
V-fno-cse-follow-jumps
p551
sVkernel-deb-arch
p552
Vundefined
p553
sVkernel-gnu-type
p554
Vhppa64-linux-gnu
p555
sVcompat-deb-arch
p556
Vhppa
p557
sVcompat-gnu-type
p558
Vhppa-linux-gnu
p559
ss(Vdescription
p560
g506
NVparisc64
p561
tp562
(dp563
Vhardware
p564
V64-bit PA-RISC
p565
sVhardware-long
p566
VHP PA-RISC 64-bit systems with support for more than 4 GB RAM
p567
ss(Vrelations
p568
g506
NVparisc64
p569
tp570
(dp571
Vheaders%gcc-12
p572
Vgcc-12-hppa64-linux-gnu
p573
ss(g223
g506
g192
tp574
(dp575
g226
(lp576
Vparisc
p577
aVparisc64
p578
asg230
I01
ss(Vbase
p579
Vi386
p580
tp581
(dp582
Vfeaturesets
p583
(lp584
Vnone
p585
aVrt
p586
asVkernel-arch
p587
Vx86
p588
ss(Vbuild
p589
g580
tp590
(dp591
Vimage-file
p592
Varch/x86/boot/bzImage
p593
sVsigned-code
p594
I01
sVvdso
p595
I01
ss(Vdescription
p596
g580
tp597
(dp598
Vpart-long-pae
p599
VThis kernel requires PAE (Physical Address Extension). This feature is supported by the Intel Pentium Pro/II/III/4/4M/D, Xeon, Core and Atom; AMD Geode NX, Athlon (K7), Duron, Opteron, Sempron, Turion or Phenom; Transmeta Efficeon; VIA C7; and some other processors.
p600
ss(Vimage
p601
g580
tp602
(dp603
Vbootloaders
p604
(lp605
Vgrub-pc
p606
aVgrub-efi-ia32
p607
aVextlinux
p608
asVinstall-stem
p609
Vvmlinuz
p610
ss(Vrelations
p611
g580
tp612
(dp613
Vheaders%gcc-12
p614
Vlinux-compiler-gcc-12-x86
p615
ss(Vdescription
p616
g580
NV686
p617
tp618
(dp619
Vhardware
p620
Volder PCs
p621
sVhardware-long
p622
VPCs with one or more processors not supporting PAE
p623
ss(Vdescription
p624
g580
NV686-pae
p625
tp626
(dp627
Vhardware
p628
Vmodern PCs
p629
sVhardware-long
p630
VPCs with one or more processors supporting PAE
p631
sVparts
p632
(lp633
Vpae
p634
ass(Vbase
p635
g580
Vnone
p636
tp637
(dp638
Vflavours
p639
(lp640
V686
p641
aV686-pae
p642
asVdefault-flavour
p643
V686-pae
p644
ss(Vbase
p645
g580
Vrt
p646
tp647
(dp648
Vflavours
p649
(lp650
V686-pae
p651
ass(Vbase
p652
Via64
p653
tp654
(dp655
Vdefault-flavour
p656
Vitanium
p657
sVkernel-arch
p658
Via64
p659
sg190
(lp660
g192
ass(Vbuild
p661
g653
tp662
(dp663
Vimage-file
p664
Vvmlinux.gz
p665
ss(Vimage
p666
g653
tp667
(dp668
Vbootloaders
p669
(lp670
Vgrub-efi-ia64
p671
asVinstall-stem
p672
Vvmlinuz
p673
ss(Vdescription
p674
g653
NVitanium
p675
tp676
(dp677
Vhardware
p678
VItanium (Merced)
p679
sVhardware-long
p680
Vsystems with original Itanium (Merced) processors
p681
ss(Vdescription
p682
g653
NVmckinley
p683
tp684
(dp685
Vhardware
p686
VItanium 2+
p687
sVhardware-long
p688
Vsystems with Itanium 2 or 9300/9500/9700-series processors
p689
ss(g223
g653
g192
tp690
(dp691
g226
(lp692
Vitanium
p693
aVmckinley
p694
asg230
I01
ss(Vbase
p695
Vm68k
p696
tp697
(dp698
Vcflags
p699
V-ffreestanding
p700
sVdefault-flavour
p701
Vm68k
p702
sVkernel-arch
p703
Vm68k
p704
sg190
(lp705
g192
ass(Vbuild
p706
g696
tp707
(dp708
Vimage-file
p709
Vvmlinux
p710
ss(Vimage
p711
g696
tp712
(dp713
Vsuggests
p714
(lp715
Vvmelilo
p716
aVfdutils
p717
asVinstall-stem
p718
Vvmlinux
p719
ss(Vdescription
p720
g696
NVm68k
p721
tp722
(dp723
Vhardware
p724
VMotorola MC68020+ family
p725
ss(g223
g696
g192
tp726
(dp727
g226
(lp728
Vm68k
p729
asg230
I01
ss(Vbase
p730
Vmips
p731
tp732
(dp733
Vkernel-arch
p734
Vmips
p735
sg190
(lp736
g192
ass(Vbuild
p737
g731
tp738
(dp739
Vimage-file
p740
Vvmlinuz
p741
ss(Vimage
p742
g731
tp743
(dp744
Vinstall-stem
p745
Vvmlinuz
p746
ss(Vdescription
p747
g731
NV4kc-malta
p748
tp749
(dp750
Vhardware
p751
VMIPS Malta
p752
sVhardware-long
p753
VMIPS Malta boards
p754
ss(Vimage
p755
g731
NV4kc-malta
p756
tp757
(dp758
Vconfigs
p759
(lp760
Vkernelarch-mips/config.malta
p761
aVkernelarch-mips/config.mips32r2
p762
ass(Vdescription
p763
g731
NVmips32r2eb
p764
tp765
(dp766
Vhardware
p767
VMIPS Generic (mips32r2eb)
p768
sVhardware-long
p769
VMIPS Generic platform (mips32r2eb)
p770
ss(Vimage
p771
g731
NVmips32r2eb
p772
tp773
(dp774
Vconfigs
p775
(lp776
Vkernelarch-mips/config.boston
p777
aVkernelarch-mips/config.mips32r2
p778
ass(Vdescription
p779
g731
NVocteon
p780
tp781
(dp782
Vhardware
p783
VOcteon
p784
sVhardware-long
p785
VCavium Networks Octeon
p786
ss(Vbuild
p787
g731
NVocteon
p788
tp789
(dp790
Vimage-file
p791
Vvmlinux
p792
ss(Vimage
p793
g731
NVocteon
p794
tp795
(dp796
Vinstall-stem
p797
Vvmlinux
p798
sVconfigs
p799
(lp800
Vkernelarch-mips/config.octeon
p801
ass(g223
g731
g192
tp802
(dp803
g226
(lp804
V4kc-malta
p805
aVmips32r2eb
p806
aVocteon
p807
asg230
I01
ss(Vbase
p808
Vmips64
p809
tp810
(dp811
Vkernel-arch
p812
Vmips
p813
sg190
(lp814
g192
ass(Vbuild
p815
g809
tp816
(dp817
Vimage-file
p818
Vvmlinuz
p819
ss(Vimage
p820
g809
tp821
(dp822
Vinstall-stem
p823
Vvmlinuz
p824
ss(Vdescription
p825
g809
NV5kc-malta
p826
tp827
(dp828
Vhardware
p829
VMIPS Malta
p830
sVhardware-long
p831
VMIPS Malta boards
p832
ss(Vimage
p833
g809
NV5kc-malta
p834
tp835
(dp836
Vconfigs
p837
(lp838
Vkernelarch-mips/config.malta
p839
aVkernelarch-mips/config.mips64r2
p840
ass(Vdescription
p841
g809
NVmips64r2eb
p842
tp843
(dp844
Vhardware
p845
VMIPS Generic (mips64r2eb)
p846
sVhardware-long
p847
VMIPS Generic platform (mips64r2eb)
p848
ss(Vimage
p849
g809
NVmips64r2eb
p850
tp851
(dp852
Vconfigs
p853
(lp854
Vkernelarch-mips/config.boston
p855
aVkernelarch-mips/config.mips64r2
p856
ass(Vdescription
p857
g809
NVocteon
p858
tp859
(dp860
Vhardware
p861
VOcteon
p862
sVhardware-long
p863
VCavium Networks Octeon
p864
ss(Vbuild
p865
g809
NVocteon
p866
tp867
(dp868
Vimage-file
p869
Vvmlinux
p870
ss(Vimage
p871
g809
NVocteon
p872
tp873
(dp874
Vinstall-stem
p875
Vvmlinux
p876
sVconfigs
p877
(lp878
Vkernelarch-mips/config.octeon
p879
ass(g223
g809
g192
tp880
(dp881
g226
(lp882
V5kc-malta
p883
aVmips64r2eb
p884
aVocteon
p885
asg230
I01
ss(Vbase
p886
Vmips64el
p887
tp888
(dp889
Vkernel-arch
p890
Vmips
p891
sg190
(lp892
g192
ass(Vbuild
p893
g887
tp894
(dp895
Vimage-file
p896
Vvmlinuz
p897
ss(Vimage
p898
g887
tp899
(dp900
Vinstall-stem
p901
Vvmlinuz
p902
ss(Vdescription
p903
g887
NV5kc-malta
p904
tp905
(dp906
Vhardware
p907
VMIPS Malta
p908
sVhardware-long
p909
VMIPS Malta boards
p910
ss(Vimage
p911
g887
NV5kc-malta
p912
tp913
(dp914
Vconfigs
p915
(lp916
Vkernelarch-mips/config.malta
p917
aVkernelarch-mips/config.mips64r2
p918
ass(Vdescription
p919
g887
NVmips64r2el
p920
tp921
(dp922
Vhardware
p923
VMIPS Generic (mips64r2el)
p924
sVhardware-long
p925
VMIPS Generic platform (mips64r2el)
p926
ss(Vimage
p927
g887
NVmips64r2el
p928
tp929
(dp930
Vconfigs
p931
(lp932
Vkernelarch-mips/config.boston
p933
aVkernelarch-mips/config.mips64r2
p934
ass(Vdescription
p935
g887
NVloongson-3
p936
tp937
(dp938
Vhardware
p939
VLoongson 3A/3B
p940
sVhardware-long
p941
VLoongson 3A or 3B based systems (e.g. from Loongson or Lemote)
p942
ss(Vimage
p943
g887
NVloongson-3
p944
tp945
(dp946
Vrecommends
p947
(lp948
Vpmon-update
p949
asVconfigs
p950
(lp951
Vkernelarch-mips/config.loongson-3
p952
ass(Vdescription
p953
g887
NVocteon
p954
tp955
(dp956
Vhardware
p957
VOcteon
p958
sVhardware-long
p959
VCavium Networks Octeon
p960
ss(Vbuild
p961
g887
NVocteon
p962
tp963
(dp964
Vimage-file
p965
Vvmlinux
p966
ss(Vimage
p967
g887
NVocteon
p968
tp969
(dp970
Vinstall-stem
p971
Vvmlinux
p972
sVconfigs
p973
(lp974
Vkernelarch-mips/config.octeon
p975
ass(g223
g887
g192
tp976
(dp977
g226
(lp978
V5kc-malta
p979
aVmips64r2el
p980
aVloongson-3
p981
aVocteon
p982
asg230
I01
ss(Vbase
p983
Vmips64r6
p984
tp985
(dp986
Vkernel-arch
p987
Vmips
p988
sg190
(lp989
g192
ass(Vbuild
p990
g984
tp991
(dp992
Vimage-file
p993
Vvmlinuz
p994
ss(Vimage
p995
g984
tp996
(dp997
Vinstall-stem
p998
Vvmlinuz
p999
ss(Vdescription
p1000
g984
NVmips64r6eb
p1001
tp1002
(dp1003
Vhardware
p1004
VMIPS Generic (mips64r6eb)
p1005
sVhardware-long
p1006
VMIPS Generic platform (mips64r6eb)
p1007
ss(Vimage
p1008
g984
NVmips64r6eb
p1009
tp1010
(dp1011
Vconfigs
p1012
(lp1013
Vkernelarch-mips/config.boston
p1014
aVkernelarch-mips/config.mips64r6
p1015
ass(g223
g984
g192
tp1016
(dp1017
g226
(lp1018
Vmips64r6eb
p1019
asg230
I01
ss(Vbase
p1020
Vmips64r6el
p1021
tp1022
(dp1023
Vkernel-arch
p1024
Vmips
p1025
sg190
(lp1026
g192
ass(Vbuild
p1027
g1021
tp1028
(dp1029
Vimage-file
p1030
Vvmlinuz
p1031
ss(Vimage
p1032
g1021
tp1033
(dp1034
Vinstall-stem
p1035
Vvmlinuz
p1036
ss(Vdescription
p1037
g1021
NVmips64r6el
p1038
tp1039
(dp1040
Vhardware
p1041
VMIPS Generic (mips64r6el)
p1042
sVhardware-long
p1043
VMIPS Generic platform (mips64r6el)
p1044
ss(Vimage
p1045
g1021
NVmips64r6el
p1046
tp1047
(dp1048
Vconfigs
p1049
(lp1050
Vkernelarch-mips/config.boston
p1051
aVkernelarch-mips/config.mips64r6
p1052
ass(g223
g1021
g192
tp1053
(dp1054
g226
(lp1055
Vmips64r6el
p1056
asg230
I01
ss(Vbase
p1057
Vmipsel
p1058
tp1059
(dp1060
Vkernel-arch
p1061
Vmips
p1062
sg190
(lp1063
g192
ass(Vbuild
p1064
g1058
tp1065
(dp1066
Vimage-file
p1067
Vvmlinuz
p1068
ss(Vimage
p1069
g1058
tp1070
(dp1071
Vinstall-stem
p1072
Vvmlinuz
p1073
ss(Vdescription
p1074
g1058
NV4kc-malta
p1075
tp1076
(dp1077
Vhardware
p1078
VMIPS Malta
p1079
sVhardware-long
p1080
VMIPS Malta boards
p1081
ss(Vimage
p1082
g1058
NV4kc-malta
p1083
tp1084
(dp1085
Vconfigs
p1086
(lp1087
Vkernelarch-mips/config.malta
p1088
aVkernelarch-mips/config.mips32r2
p1089
ass(Vdescription
p1090
g1058
NVmips32r2el
p1091
tp1092
(dp1093
Vhardware
p1094
VMIPS Generic (mips32r2el)
p1095
sVhardware-long
p1096
VMIPS Generic platform (mips32r2el)
p1097
ss(Vimage
p1098
g1058
NVmips32r2el
p1099
tp1100
(dp1101
Vconfigs
p1102
(lp1103
Vkernelarch-mips/config.boston
p1104
aVkernelarch-mips/config.mips32r2
p1105
ass(Vdescription
p1106
g1058
NVloongson-3
p1107
tp1108
(dp1109
Vhardware
p1110
VLoongson 3A/3B
p1111
sVhardware-long
p1112
VLoongson 3A or 3B based systems (e.g. from Loongson or Lemote)
p1113
ss(Vimage
p1114
g1058
NVloongson-3
p1115
tp1116
(dp1117
Vrecommends
p1118
(lp1119
Vpmon-update
p1120
asVconfigs
p1121
(lp1122
Vkernelarch-mips/config.loongson-3
p1123
ass(Vdescription
p1124
g1058
NVocteon
p1125
tp1126
(dp1127
Vhardware
p1128
VOcteon
p1129
sVhardware-long
p1130
VCavium Networks Octeon
p1131
ss(Vbuild
p1132
g1058
NVocteon
p1133
tp1134
(dp1135
Vimage-file
p1136
Vvmlinux
p1137
ss(Vimage
p1138
g1058
NVocteon
p1139
tp1140
(dp1141
Vinstall-stem
p1142
Vvmlinux
p1143
sVconfigs
p1144
(lp1145
Vkernelarch-mips/config.octeon
p1146
ass(g223
g1058
g192
tp1147
(dp1148
g226
(lp1149
V4kc-malta
p1150
aVmips32r2el
p1151
aVloongson-3
p1152
aVocteon
p1153
asg230
I01
ss(Vbase
p1154
Vmipsn32
p1155
tp1156
(dp1157
Vkernel-arch
p1158
Vmips
p1159
sVfeaturesets
p1160
(lp1161
ss(Vbase
p1162
Vmipsn32el
p1163
tp1164
(dp1165
Vkernel-arch
p1166
Vmips
p1167
sVfeaturesets
p1168
(lp1169
ss(Vbase
p1170
Vmipsn32r6
p1171
tp1172
(dp1173
Vkernel-arch
p1174
Vmips
p1175
sVfeaturesets
p1176
(lp1177
ss(Vbase
p1178
Vmipsn32r6el
p1179
tp1180
(dp1181
Vkernel-arch
p1182
Vmips
p1183
sVfeaturesets
p1184
(lp1185
ss(Vbase
p1186
Vmipsr6
p1187
tp1188
(dp1189
Vkernel-arch
p1190
Vmips
p1191
sg190
(lp1192
g192
ass(Vbuild
p1193
g1187
tp1194
(dp1195
Vimage-file
p1196
Vvmlinuz
p1197
ss(Vimage
p1198
g1187
tp1199
(dp1200
Vinstall-stem
p1201
Vvmlinuz
p1202
ss(Vdescription
p1203
g1187
NVmips32r6eb
p1204
tp1205
(dp1206
Vhardware
p1207
VMIPS Generic (mips32r6eb)
p1208
sVhardware-long
p1209
VMIPS Generic platform (mips32r6eb)
p1210
ss(Vimage
p1211
g1187
NVmips32r6eb
p1212
tp1213
(dp1214
Vconfigs
p1215
(lp1216
Vkernelarch-mips/config.boston
p1217
aVkernelarch-mips/config.mips32r6
p1218
ass(g223
g1187
g192
tp1219
(dp1220
g226
(lp1221
Vmips32r6eb
p1222
asg230
I01
ss(Vbase
p1223
Vmipsr6el
p1224
tp1225
(dp1226
Vkernel-arch
p1227
Vmips
p1228
sg190
(lp1229
g192
ass(Vbuild
p1230
g1224
tp1231
(dp1232
Vimage-file
p1233
Vvmlinuz
p1234
ss(Vimage
p1235
g1224
tp1236
(dp1237
Vinstall-stem
p1238
Vvmlinuz
p1239
ss(Vdescription
p1240
g1224
NVmips32r6el
p1241
tp1242
(dp1243
Vhardware
p1244
VMIPS Generic (mips32r6el)
p1245
sVhardware-long
p1246
VMIPS Generic platform (mips32r6el)
p1247
ss(Vimage
p1248
g1224
NVmips32r6el
p1249
tp1250
(dp1251
Vconfigs
p1252
(lp1253
Vkernelarch-mips/config.boston
p1254
aVkernelarch-mips/config.mips32r6
p1255
ass(g223
g1224
g192
tp1256
(dp1257
g226
(lp1258
Vmips32r6el
p1259
asg230
I01
ss(Vbase
p1260
Vpowerpc
p1261
tp1262
(dp1263
Vkernel-arch
p1264
Vpowerpc
p1265
sg190
(lp1266
g192
ass(Vbuild
p1267
g1261
tp1268
(dp1269
Vimage-file
p1270
Vvmlinux
p1271
ss(Vimage
p1272
g1261
tp1273
(dp1274
Vconfigs
p1275
(lp1276
sVbootloaders
p1277
(lp1278
Vgrub-ieee1275
p1279
asVsuggests
p1280
(lp1281
Vmkvmlinuz
p1282
asVinstall-stem
p1283
Vvmlinux
p1284
ss(Vdescription
p1285
g1261
NVpowerpc
p1286
tp1287
(dp1288
Vhardware
p1289
Vuniprocessor 32-bit PowerPC
p1290
ss(Vdescription
p1291
g1261
NVpowerpc-smp
p1292
tp1293
(dp1294
Vhardware
p1295
Vmultiprocessor 32-bit PowerPC
p1296
ss(Vimage
p1297
g1261
NVpowerpc-smp
p1298
tp1299
(dp1300
Vconfigs
p1301
(lp1302
Vpowerpc/config.powerpc
p1303
aVpowerpc/config.powerpc-smp
p1304
ass(Vdescription
p1305
g1261
NVpowerpc64
p1306
tp1307
(dp1308
Vhardware
p1309
V64-bit PowerPC
p1310
ss(Vimage
p1311
g1261
NVpowerpc64
p1312
tp1313
(dp1314
Vconfigs
p1315
(lp1316
Vkernelarch-powerpc/config-arch-64
p1317
aVkernelarch-powerpc/config-arch-64-be
p1318
ass(g223
g1261
g192
tp1319
(dp1320
g226
(lp1321
Vpowerpc
p1322
aVpowerpc-smp
p1323
aVpowerpc64
p1324
asg230
I01
ss(Vbase
p1325
Vppc64
p1326
tp1327
(dp1328
Vdefault-flavour
p1329
Vpowerpc64
p1330
sVkernel-arch
p1331
Vpowerpc
p1332
sg190
(lp1333
g192
ass(Vbuild
p1334
g1326
tp1335
(dp1336
Vimage-file
p1337
Vvmlinux
p1338
ss(Vimage
p1339
g1326
tp1340
(dp1341
Vconfigs
p1342
(lp1343
sVbootloaders
p1344
(lp1345
Vgrub-ieee1275
p1346
asVsuggests
p1347
(lp1348
Vmkvmlinuz
p1349
asVinstall-stem
p1350
Vvmlinux
p1351
ss(Vdescription
p1352
g1326
NVpowerpc64
p1353
tp1354
(dp1355
Vhardware
p1356
V64-bit PowerPC
p1357
ss(Vimage
p1358
g1326
NVpowerpc64
p1359
tp1360
(dp1361
Vconfigs
p1362
(lp1363
Vkernelarch-powerpc/config-arch-64
p1364
aVkernelarch-powerpc/config-arch-64-be
p1365
ass(g223
g1326
g192
tp1366
(dp1367
g226
(lp1368
Vpowerpc64
p1369
asg230
I01
ss(Vbase
p1370
Vppc64el
p1371
tp1372
(dp1373
Vdefault-flavour
p1374
Vpowerpc64le
p1375
sVkernel-arch
p1376
Vpowerpc
p1377
sg190
(lp1378
g192
ass(Vbuild
p1379
g1371
tp1380
(dp1381
Vimage-file
p1382
Vvmlinux
p1383
ss(Vimage
p1384
g1371
tp1385
(dp1386
Vconfigs
p1387
(lp1388
sVbootloaders
p1389
(lp1390
Vgrub-ieee1275
p1391
asVsuggests
p1392
(lp1393
Vmkvmlinuz
p1394
asVinstall-stem
p1395
Vvmlinux
p1396
ss(Vdescription
p1397
g1371
NVpowerpc64le
p1398
tp1399
(dp1400
Vhardware
p1401
VLittle-endian 64-bit PowerPC
p1402
ss(Vimage
p1403
g1371
NVpowerpc64le
p1404
tp1405
(dp1406
Vconfigs
p1407
(lp1408
Vkernelarch-powerpc/config-arch-64
p1409
aVkernelarch-powerpc/config-arch-64-le
p1410
ass(g223
g1371
g192
tp1411
(dp1412
g226
(lp1413
Vpowerpc64le
p1414
asg230
I01
ss(Vbase
p1415
Vriscv64
p1416
tp1417
(dp1418
Vkernel-arch
p1419
Vriscv
p1420
sVfeaturesets
p1421
(lp1422
Vnone
p1423
ass(Vbuild
p1424
g1416
tp1425
(dp1426
Vimage-file
p1427
Varch/riscv/boot/Image
p1428
sVvdso
p1429
I01
ss(Vimage
p1430
g1416
tp1431
(dp1432
Vinstall-stem
p1433
Vvmlinux
p1434
ss(Vdescription
p1435
g1416
NVriscv64
p1436
tp1437
(dp1438
Vhardware
p1439
V64-bit RISC-V platforms
p1440
sVhardware-long
p1441
V64-bit RISC-V platforms
p1442
ss(Vbase
p1443
g1416
Vnone
p1444
tp1445
(dp1446
Vflavours
p1447
(lp1448
Vriscv64
p1449
asVdefault-flavour
p1450
Vriscv64
p1451
ss(Vbase
p1452
Vs390
p1453
tp1454
(dp1455
Vkernel-arch
p1456
Vs390
p1457
sVfeaturesets
p1458
(lp1459
ss(Vbase
p1460
Vs390x
p1461
tp1462
(dp1463
Vdefault-flavour
p1464
Vs390x
p1465
sVkernel-arch
p1466
Vs390
p1467
sg190
(lp1468
g192
ass(Vbuild
p1469
g1461
tp1470
(dp1471
Vimage-file
p1472
Varch/s390/boot/bzImage
p1473
sVvdso
p1474
I01
ss(Vimage
p1475
g1461
tp1476
(dp1477
Vbootloaders
p1478
(lp1479
Vs390-tools
p1480
asVinstall-stem
p1481
Vvmlinuz
p1482
ss(Vrelations
p1483
g1461
tp1484
(dp1485
Vheaders%gcc-12
p1486
Vlinux-compiler-gcc-12-s390
p1487
ss(Vdescription
p1488
g1461
NVs390x
p1489
tp1490
(dp1491
Vhardware
p1492
VIBM zSeries
p1493
ss(g223
g1461
g192
tp1494
(dp1495
g226
(lp1496
Vs390x
p1497
asg230
I01
ss(Vbase
p1498
Vsh3
p1499
tp1500
(dp1501
Vkernel-arch
p1502
Vsh
p1503
sVfeaturesets
p1504
(lp1505
ss(Vbase
p1506
Vsh4
p1507
tp1508
(dp1509
Vkernel-arch
p1510
Vsh
p1511
sg190
(lp1512
g192
ass(Vbuild
p1513
g1507
tp1514
(dp1515
Vimage-file
p1516
Varch/sh/boot/zImage
p1517
ss(Vimage
p1518
g1507
tp1519
(dp1520
Vinstall-stem
p1521
Vvmlinuz
p1522
ss(Vdescription
p1523
g1507
NVsh7751r
p1524
tp1525
(dp1526
Vhardware
p1527
Vsh7751r
p1528
sVhardware-long
p1529
VRenesas SH7751R R2D plus board
p1530
ss(Vdescription
p1531
g1507
NVsh7785lcr
p1532
tp1533
(dp1534
Vhardware
p1535
Vsh7785lcr
p1536
sVhardware-long
p1537
VRenesas SH7785 reference board
p1538
ss(Vimage
p1539
g1507
NVsh7785lcr
p1540
tp1541
(dp1542
Vrecommends
p1543
(lp1544
Vu-boot-tools
p1545
asVcheck-size
p1546
I4194304
ss(g223
g1507
g192
tp1547
(dp1548
g226
(lp1549
Vsh7751r
p1550
aVsh7785lcr
p1551
asg230
I01
ss(Vbase
p1552
Vsparc
p1553
tp1554
(dp1555
Vkernel-arch
p1556
Vsparc
p1557
sVfeaturesets
p1558
(lp1559
ss(Vbase
p1560
Vsparc64
p1561
tp1562
(dp1563
Vdefault-flavour
p1564
Vsparc64-smp
p1565
sVkernel-arch
p1566
Vsparc
p1567
sg190
(lp1568
g192
ass(Vbuild
p1569
g1561
tp1570
(dp1571
Vimage-file
p1572
Vvmlinux
p1573
ss(Vimage
p1574
g1561
tp1575
(dp1576
Vconfigs
p1577
(lp1578
sVbootloaders
p1579
(lp1580
Vgrub-ieee1275
p1581
asVsuggests
p1582
(lp1583
Vfdutils
p1584
asVinstall-stem
p1585
Vvmlinux
p1586
ss(Vdescription
p1587
g1561
NVsparc64
p1588
tp1589
(dp1590
Vhardware
p1591
Vuniprocessor 64-bit UltraSPARC
p1592
ss(Vimage
p1593
g1561
NVsparc64
p1594
tp1595
(dp1596
Vconfigs
p1597
(lp1598
Vkernelarch-sparc/config-up
p1599
ass(Vdescription
p1600
g1561
NVsparc64-smp
p1601
tp1602
(dp1603
Vhardware
p1604
Vmultiprocessor 64-bit UltraSPARC
p1605
ss(Vimage
p1606
g1561
NVsparc64-smp
p1607
tp1608
(dp1609
Vconfigs
p1610
(lp1611
Vkernelarch-sparc/config-smp
p1612
ass(g223
g1561
g192
tp1613
(dp1614
g226
(lp1615
Vsparc64
p1616
aVsparc64-smp
p1617
asg230
I01
ss(Vbase
p1618
Vx32
p1619
tp1620
(dp1621
Vkernel-arch
p1622
Vx86
p1623
sVfeaturesets
p1624
(lp1625
ss(Vabi
p1626
NVrt
p1627
tp1628
(dp1629
Vignore-changes
p1630
(lp1631
V*
p1632
ass(Vdescription
p1633
Ng1627
tp1634
(dp1635
Vpart-long-rt
p1636
VThis kernel includes the PREEMPT_RT realtime patch set.
p1637
sVpart-short-rt
p1638
VPREEMPT_RT
p1639
sVparts
p1640
(lp1641
Vrt
p1642
ass(Vversion
p1643
tp1644
(dp1645
Vsource
p1646
V6.5.10-1~bpo12+1
p1647
sVupstream
p1648
V6.5
p1649
sVabiname_base
p1650
V6.5.0
p1651
sVabiname
p1652
V6.5.0-0.puavo1
p1653
ss.