cdebian_linux.config
ConfigCore
p0
(tRp1
(Vbase
p2
tp3
(dp4
Varches
p5
(lp6
Valpha
p7
aVamd64
p8
aVarm64
p9
aVarmel
p10
aVarmhf
p11
aVhppa
p12
aVi386
p13
aVm68k
p14
aVmips
p15
aVmipsel
p16
aVmipsn32
p17
aVmipsn32el
p18
aVmips64
p19
aVmips64el
p20
aVpowerpc
p21
aVpowerpcspe
p22
aVppc64
p23
aVppc64el
p24
aVs390
p25
aVs390x
p26
aVsh3
p27
aVsh4
p28
aVsparc
p29
aVsparc64
p30
aVtilegx
p31
aVx32
p32
asVfeaturesets
p33
(lp34
Vnone
p35
aVrt
p36
asVcompiler
p37
Vgcc-6
p38
ss(Vbuild
p39
tp40
(dp41
Vsigned-modules
p42
I00
sVdebug-info
p43
I01
ss(Vbase
p44
NVrt
p45
tp46
(dp47
Venabled
p48
I01
ss(Vdescription
p49
tp50
(dp51
Vpart-long-up
p52
VThis kernel is not suitable for SMP (multi-processor,\u000amulti-core or hyper-threaded) systems.
p53
sVpart-long-xen
p54
VThis kernel also runs on a Xen hypervisor.\u000aIt supports both privileged (dom0) and unprivileged (domU) operation.
p55
ss(Vrelations
p56
tp57
(dp58
Vinitramfs-tools
p59
Vinitramfs-tools (>= 0.120+deb8u2)
p60
sVgcc-6
p61
Vgcc-6 <!stage1 !cross>, gcc-6-@gnu-type-package@ <!stage1 cross>
p62
sVinitramfs-fallback
p63
Vlinux-initramfs-tool
p64
ss(Vimage
p65
tp66
(dp67
Vinitramfs-generators
p68
(lp69
Vinitramfs-tools
p70
aVinitramfs-fallback
p71
ass(Vabi
p72
tp73
(dp74
Vabiname
p75
V12
p76
sVignore-changes
p77
(lp78
V__cpuhp_*
p79
aVbpf_analyzer
p80
aVcpu_tlbstate
p81
aVcxl_*
p82
aVinet_frag_*
p83
aVinet_frags_*
p84
aVinjectm
p85
aVip6_expire_frag_queue
p86
aVip6_frag_*
p87
aVmce_*
p88
aVmm_iommu_*
p89
aVmv_mbus_*
p90
aVregister_cxl_calls
p91
aVregister_key_type
p92
aVtpm_*
p93
aVtpmm_chip_alloc
p94
aVunregister_cxl_calls
p95
aVmodule:drivers/block/loop
p96
aVmodule:drivers/crypto/ccp/*
p97
aVmodule:drivers/edac/edac_mce_amd
p98
aVmodule:drivers/hv/*
p99
aVmodule:drivers/iio/common/hid-sensors/*
p100
aVmodule:drivers/iio/common/st_sensors/**
p101
aVmodule:drivers/net/ethernet/**
p102
aVmodule:drivers/net/wireless/**
p103
aVmodule:drivers/nfc/**
p104
aVmodule:drivers/nvdimm/*
p105
aVmodule:drivers/nvme/**
p106
aVmodule:drivers/power/supply/bq27xxx_battery
p107
aVmodule:drivers/s390/net/qeth
p108
aVmodule:drivers/s390/net/qeth*
p109
aVmodule:drivers/scsi/cxgbi/*
p110
aVmodule:drivers/scsi/esp_scsi
p111
aVmodule:drivers/scsi/libiscs*
p112
aVmodule:drivers/scsi/qla2xxx/qla2xxx
p113
aVmodule:drivers/scsi/ufs/*
p114
aVmodule:drivers/target/**
p115
aVmodule:drivers/usb/chipidea/**
p116
aVmodule:drivers/usb/gadget/**
p117
aVmodule:drivers/usb/host/**
p118
aVmodule:drivers/usb/musb/**
p119
aVmodule:drivers/vhost/vhost
p120
aVmodule:fs/nfs/nfs
p121
aVmodule:net/ceph/libceph
p122
aVmodule:net/nfc/hci/hci
p123
aVmodule:net/l2tp/**
p124
aVmodule:net/vmw_vsock/*
p125
aVmodule:sound/firewire/snd-firewire-lib
p126
aVmodule:sound/pci/hda/*
p127
aVbtree_*
p128
aVvisitor*
p129
aVcan_rx_register
p130
aVip6_xmit
p131
aVmodule:net/dccp/dccp
p132
aVmodule:net/rds/rds
p133
aVdevfreq_*
p134
aVdevm_devfreq_*
p135
aVupdate_devfreq
p136
aVmodule:drivers/infiniband/**
p137
aVacpi_ec_add_query_handler
p138
aVacpi_ec_remove_query_handler
p139
aVfirst_ec
p140
aVdebugfs_create_automount
p141
aV__gfn_*
p142
aV__kvm_*
p143
aVgfn_*
p144
aVkvm_*
p145
aVmark_page_dirty
p146
aVvcpu_*
p147
aVmodule:arch/powerpc/kvm/*
p148
aVmodule:arch/s390/kvm/*
p149
aVmodule:arch/x86/kvm/*
p150
aV*_xen_*
p151
aV*_xenballooned_*
p152
aV*_xenbus_*
p153
aV*_xenstore_*
p154
aVgnttab_*
p155
aVHYPERVISOR_*
p156
aVx86_hyper_xen
p157
aVxen_*
p158
aVxenbus_*
p159
aVreturn_address
p160
aVbr_netfilter_enable
p161
ass(Vbase
p162
Valpha
p163
tp164
(dp165
Vfeaturesets
p166
(lp167
Vnone
p168
asVkernel-arch
p169
Valpha
p170
ss(Vdescription
p171
g163
NValpha-smp
p172
tp173
(dp174
Vhardware
p175
VAlpha SMP
p176
sVhardware-long
p177
VDEC Alpha SMP systems with extended kernel start address (Wildfire, Titan, Marvel)
p178
ss(Vbuild
p179
g163
tp180
(dp181
Vsigned-modules
p182
I00
sVimage-file
p183
Varch/alpha/boot/vmlinux.gz
p184
ss(Vdescription
p185
g163
NValpha-generic
p186
tp187
(dp188
Vhardware
p189
VAlpha
p190
sVhardware-long
p191
VDEC Alpha systems with extended kernel start address (Wildfire, Titan, Marvel)
p192
ss(Vimage
p193
g163
tp194
(dp195
Vsuggests
p196
Vaboot, fdutils
p197
sVinstall-stem
p198
Vvmlinuz
p199
ss(Vbase
p200
g163
g168
tp201
(dp202
Vflavours
p203
(lp204
Valpha-generic
p205
aValpha-smp
p206
asVimplicit-flavour
p207
I01
ss(Vbase
p208
Vamd64
p209
tp210
(dp211
Vfeaturesets
p212
(lp213
Vnone
p214
aVrt
p215
asVkernel-arch
p216
Vx86
p217
ss(Vdescription
p218
g209
NVamd64
p219
tp220
(dp221
Vhardware
p222
V64-bit PCs
p223
sVhardware-long
p224
VPCs with AMD64, Intel 64 or VIA Nano processors
p225
ss(Vbuild
p226
g209
tp227
(dp228
Vvdso
p229
I01
sVimage-file
p230
Varch/x86/boot/bzImage
p231
sVdebug-info
p232
I01
ss(Vrelations
p233
g209
tp234
(dp235
Vheaders%gcc-6
p236
Vlinux-compiler-gcc-6-x86 (>= 4.9.82-1+deb9u1~)
p237
sVgcc-6
p238
Vgcc-6 (>= 6.3.0-18+deb9u1~) <!stage1 !cross>, gcc-6-@gnu-type-package@ (>= 6.3.0-18+deb9u1~) <!stage1 cross>
p239
ss(Vimage
p240
g209
tp241
(dp242
Vbreaks
p243
Vxserver-xorg-input-vmmouse (<< 1:13.0.99), qemu-system-x86 (<< 1:2.5+dfsg-1)
p244
sVinstall-stem
p245
Vvmlinuz
p246
sVbootloaders
p247
(lp248
Vgrub-pc
p249
aVgrub-efi-amd64
p250
aVextlinux
p251
ass(Vbase
p252
g209
Vnone
p253
tp254
(dp255
Vflavours
p256
(lp257
Vamd64
p258
ass(Vdescription
p259
g209
g253
Vamd64
p260
tp261
(dp262
Vparts
p263
(lp264
Vxen
p265
ass(Vbase
p266
g209
Vrt
p267
tp268
(dp269
Vflavours
p270
(lp271
Vamd64
p272
ass(Vbase
p273
Varm64
p274
tp275
(dp276
Vfeaturesets
p277
(lp278
Vnone
p279
asVkernel-arch
p280
Varm64
p281
ss(Vdescription
p282
g274
NVarm64
p283
tp284
(dp285
Vhardware
p286
V64-bit ARMv8 machines
p287
ss(Vbuild
p288
g274
tp289
(dp290
Vvdso
p291
I01
sVimage-file
p292
Varch/arm64/boot/Image
p293
sVdebug-info
p294
I01
ss(Vimage
p295
g274
NVarm64
p296
tp297
(dp298
s(Vimage
p299
g274
tp300
(dp301
Vbreaks
p302
Vlibmozjs185-1.0, libmozjs-24-0 (<< 24.2.0-5.1~)
p303
sVinstall-stem
p304
Vvmlinuz
p305
ss(Vbase
p306
g274
Vnone
p307
tp308
(dp309
Vflavours
p310
(lp311
Varm64
p312
ass(Vbase
p313
Varmel
p314
tp315
(dp316
g166
(lp317
g168
asVkernel-arch
p318
Varm
p319
ss(Vbuild
p320
g314
tp321
(dp322
Vsigned-modules
p323
I00
sVimage-file
p324
Varch/arm/boot/zImage
p325
ss(Vimage
p326
g314
NVmarvell
p327
tp328
(dp329
Vrecommends
p330
Vu-boot-tools
p331
sVbreaks
p332
Vflash-kernel (<< 3.57~)
p333
sVcheck-size-with-dtb
p334
I01
sVcheck-size
p335
L2097080L
ss(Vdescription
p336
g314
NVmarvell
p337
tp338
(dp339
Vhardware
p340
VMarvell Kirkwood/Orion
p341
sVhardware-long
p342
VMarvell Kirkwood based systems (SheevaPlug, QNAP TS-119/TS-219, etc)\u000aand Orion 5181, 5182 and 5281 based systems (QNAP TS-109/TS-209, etc)
p343
ss(Vrelations
p344
g314
tp345
(dp346
Vheaders%gcc-6
p347
Vlinux-compiler-gcc-6-arm
p348
ss(Vimage
p349
g314
tp350
(dp351
Vinstall-stem
p352
Vvmlinuz
p353
ss(g200
g314
g168
tp354
(dp355
g203
(lp356
Vmarvell
p357
asg207
I01
ss(Vbase
p358
Varmhf
p359
tp360
(dp361
g166
(lp362
g168
asVkernel-arch
p363
Varm
p364
ss(Vdescription
p365
g359
NVarmmp
p366
tp367
(dp368
Vhardware
p369
VARMv7 multiplatform compatible SoCs
p370
sVhardware-long
p371
VARMv7 multiplatform kernel. See\u000ahttps://wiki.debian.org/DebianKernel/ARMMP for details of supported\u000aplatforms
p372
ss(Vbuild
p373
g359
tp374
(dp375
Vvdso
p376
I01
sVimage-file
p377
Varch/arm/boot/zImage
p378
ss(Vdescription
p379
g359
NVarmmp-lpae
p380
tp381
(dp382
Vhardware
p383
VARMv7 multiplatform compatible SoCs supporting LPAE
p384
sVhardware-long
p385
VARMv7 multiplatform kernel supporting LPAE. See\u000ahttps://wiki.debian.org/DebianKernel/ARMMP for details of supported\u000aplatforms.
p386
ss(Vrelations
p387
g359
tp388
(dp389
Vheaders%gcc-6
p390
Vlinux-compiler-gcc-6-arm
p391
ss(Vimage
p392
g359
tp393
(dp394
Vinstall-stem
p395
Vvmlinuz
p396
ss(g200
g359
g168
tp397
(dp398
g203
(lp399
Varmmp
p400
aVarmmp-lpae
p401
asg207
I01
ss(Vbase
p402
Vhppa
p403
tp404
(dp405
g166
(lp406
g168
asVkernel-arch
p407
Vparisc
p408
ss(Vbuild
p409
g403
tp410
(dp411
Vsigned-modules
p412
I00
sVimage-file
p413
Vvmlinux
p414
ss(Vdescription
p415
g403
NVparisc64-smp
p416
tp417
(dp418
Vhardware
p419
Vmultiprocessor 64-bit PA-RISC
p420
sVhardware-long
p421
VHP PA-RISC 64-bit SMP systems with support for more than 4 GB RAM
p422
ss(Vbase
p423
g403
NVparisc64-smp
p424
tp425
(dp426
Vcflags
p427
V-fno-cse-follow-jumps
p428
sVoverride-host-type
p429
Vhppa64-linux-gnu
p430
ss(Vrelations
p431
g403
tp432
(dp433
Vgcc-6
p434
Vgcc-6 <!stage1 !cross>, binutils-hppa64-linux-gnu <!stage1 !cross>, gcc-6-hppa64-linux-gnu <!stage1 !cross>, gcc-6-hppa-linux-gnu <!stage1 cross>, binutils-hppa64-linux-gnu <!stage1 cross>, gcc-6-hppa64-linux-gnu <!stage1 cross>
p435
ss(Vdescription
p436
g403
NVparisc
p437
tp438
(dp439
Vhardware
p440
V32-bit PA-RISC
p441
sVhardware-long
p442
VHP PA-RISC 32-bit systems with max 4 GB RAM
p443
ss(Vimage
p444
g403
tp445
(dp446
Vsuggests
p447
Vpalo
p448
sVinstall-stem
p449
Vvmlinux
p450
ss(g200
g403
g168
tp451
(dp452
g203
(lp453
Vparisc
p454
aVparisc64-smp
p455
asg207
I01
ss(Vbase
p456
Vi386
p457
tp458
(dp459
Vfeaturesets
p460
(lp461
Vnone
p462
aVrt
p463
asVkernel-arch
p464
Vx86
p465
ss(Vbuild
p466
g457
tp467
(dp468
Vvdso
p469
I01
sVimage-file
p470
Varch/x86/boot/bzImage
p471
ss(Vdescription
p472
g457
NV686-pae
p473
tp474
(dp475
Vhardware
p476
Vmodern PCs
p477
sVhardware-long
p478
VPCs with one or more processors supporting PAE
p479
sVparts
p480
(lp481
Vpae
p482
ass(Vdescription
p483
g457
tp484
(dp485
Vpart-long-pae
p486
VThis kernel requires PAE (Physical Address Extension).\u000aThis feature is supported by the Intel Pentium Pro/II/III/4/4M/D, Xeon,\u000aCore and Atom; AMD Geode NX, Athlon (K7), Duron, Opteron, Sempron,\u000aTurion or Phenom; Transmeta Efficeon; VIA C7; and some other processors.
p487
ss(Vbuild
p488
g457
NV686-pae
p489
tp490
(dp491
Vdebug-info
p492
I01
ss(Vdescription
p493
g457
NV686
p494
tp495
(dp496
Vhardware
p497
Volder PCs
p498
sVhardware-long
p499
VPCs with one or more processors not supporting PAE
p500
ss(Vrelations
p501
g457
tp502
(dp503
Vheaders%gcc-6
p504
Vlinux-compiler-gcc-6-x86 (>= 4.9.82-1+deb9u1~)
p505
sVgcc-6
p506
Vgcc-6 (>= 6.3.0-18+deb9u1~) <!stage1 !cross>, gcc-6-@gnu-type-package@ (>= 6.3.0-18+deb9u1~) <!stage1 cross>
p507
ss(Vimage
p508
g457
tp509
(dp510
Vbreaks
p511
Vxserver-xorg-input-vmmouse (<< 1:13.0.99), qemu-system-x86 (<< 1:2.5+dfsg-1)
p512
sVinstall-stem
p513
Vvmlinuz
p514
sVbootloaders
p515
(lp516
Vgrub-pc
p517
aVextlinux
p518
ass(Vbase
p519
g457
Vnone
p520
tp521
(dp522
Vflavours
p523
(lp524
V686
p525
aV686-pae
p526
ass(Vdescription
p527
g457
g520
V686-pae
p528
tp529
(dp530
Vparts
p531
(lp532
Vxen
p533
ass(Vbase
p534
g457
Vrt
p535
tp536
(dp537
Vflavours
p538
(lp539
V686-pae
p540
ass(Vbase
p541
Vm68k
p542
tp543
(dp544
Vcflags
p545
V-ffreestanding
p546
sg166
(lp547
g168
asVkernel-arch
p548
Vm68k
p549
ss(Vbuild
p550
g542
tp551
(dp552
Vsigned-modules
p553
I00
sVimage-file
p554
Vvmlinux.gz
p555
ss(Vdescription
p556
g542
NVm68k
p557
tp558
(dp559
Vhardware
p560
VMotorola MC68020+ family
p561
ss(Vimage
p562
g542
tp563
(dp564
Vsuggests
p565
Vvmelilo, fdutils
p566
sVinstall-stem
p567
Vvmlinuz
p568
ss(g200
g542
g168
tp569
(dp570
g203
(lp571
Vm68k
p572
asg207
I01
ss(Vbase
p573
Vmips
p574
tp575
(dp576
g166
(lp577
g168
asVkernel-arch
p578
Vmips
p579
ss(Vbuild
p580
g574
tp581
(dp582
Vsigned-modules
p583
I00
sVimage-file
p584
Vvmlinux
p585
ss(Vimage
p586
g574
NV4kc-malta
p587
tp588
(dp589
Vconfigs
p590
(lp591
Vkernelarch-mips/config.malta
p592
aVkernelarch-mips/config.mips32r2
p593
ass(Vimage
p594
g574
NV5kc-malta
p595
tp596
(dp597
Vconfigs
p598
(lp599
Vkernelarch-mips/config.malta
p600
aVkernelarch-mips/config.mips64r2
p601
ass(Vdescription
p602
g574
NVocteon
p603
tp604
(dp605
Vhardware
p606
VOcteon
p607
sVhardware-long
p608
VCavium Networks Octeon
p609
ss(Vimage
p610
g574
NVocteon
p611
tp612
(dp613
Vconfigs
p614
(lp615
Vkernelarch-mips/config.octeon
p616
ass(Vimage
p617
g574
tp618
(dp619
Vinstall-stem
p620
Vvmlinux
p621
ss(Vdescription
p622
g574
NV5kc-malta
p623
tp624
(dp625
Vhardware
p626
VMIPS Malta (64-bit)
p627
sVhardware-long
p628
VMIPS Malta boards (64-bit)
p629
ss(Vdescription
p630
g574
NV4kc-malta
p631
tp632
(dp633
Vhardware
p634
VMIPS Malta
p635
sVhardware-long
p636
VMIPS Malta boards
p637
ss(g200
g574
g168
tp638
(dp639
g203
(lp640
V4kc-malta
p641
aV5kc-malta
p642
aVocteon
p643
asg207
I01
ss(Vbase
p644
Vmipsel
p645
tp646
(dp647
g166
(lp648
g168
asVkernel-arch
p649
Vmips
p650
ss(Vimage
p651
g645
NVloongson-3
p652
tp653
(dp654
Vconfigs
p655
(lp656
Vkernelarch-mips/config.loongson-3
p657
ass(Vbuild
p658
g645
tp659
(dp660
Vsigned-modules
p661
I00
sVimage-file
p662
Vvmlinux
p663
ss(Vimage
p664
g645
NV4kc-malta
p665
tp666
(dp667
Vconfigs
p668
(lp669
Vkernelarch-mips/config.malta
p670
aVkernelarch-mips/config.mips32r2
p671
ass(Vimage
p672
g645
NV5kc-malta
p673
tp674
(dp675
Vconfigs
p676
(lp677
Vkernelarch-mips/config.malta
p678
aVkernelarch-mips/config.mips64r2
p679
ass(Vdescription
p680
g645
NVocteon
p681
tp682
(dp683
Vhardware
p684
VOcteon
p685
sVhardware-long
p686
VCavium Networks Octeon
p687
ss(Vdescription
p688
g645
NVloongson-3
p689
tp690
(dp691
Vhardware
p692
VLoongson 3A/3B
p693
sVhardware-long
p694
VLoongson 3A or 3B based systems (e.g. from Loongson or Lemote)
p695
ss(Vimage
p696
g645
NVocteon
p697
tp698
(dp699
Vconfigs
p700
(lp701
Vkernelarch-mips/config.octeon
p702
ass(Vimage
p703
g645
tp704
(dp705
Vinstall-stem
p706
Vvmlinux
p707
ss(Vdescription
p708
g645
NV5kc-malta
p709
tp710
(dp711
Vhardware
p712
VMIPS Malta (64-bit)
p713
sVhardware-long
p714
VMIPS Malta boards (64-bit)
p715
ss(Vdescription
p716
g645
NV4kc-malta
p717
tp718
(dp719
Vhardware
p720
VMIPS Malta
p721
sVhardware-long
p722
VMIPS Malta boards
p723
ss(g200
g645
g168
tp724
(dp725
g203
(lp726
V4kc-malta
p727
aV5kc-malta
p728
aVloongson-3
p729
aVocteon
p730
asg207
I01
ss(Vbase
p731
Vmipsn32
p732
tp733
(dp734
Vfeaturesets
p735
(lp736
sVkernel-arch
p737
Vmips
p738
ss(Vbase
p739
Vmipsn32el
p740
tp741
(dp742
Vfeaturesets
p743
(lp744
sVkernel-arch
p745
Vmips
p746
ss(Vbase
p747
Vmips64
p748
tp749
(dp750
g166
(lp751
g168
asVkernel-arch
p752
Vmips
p753
ss(Vbuild
p754
g748
tp755
(dp756
Vsigned-modules
p757
I00
sVimage-file
p758
Vvmlinux
p759
ss(Vimage
p760
g748
NV5kc-malta
p761
tp762
(dp763
Vconfigs
p764
(lp765
Vkernelarch-mips/config.malta
p766
aVkernelarch-mips/config.mips64r2
p767
ass(Vdescription
p768
g748
NVocteon
p769
tp770
(dp771
Vhardware
p772
VOcteon
p773
sVhardware-long
p774
VCavium Networks Octeon
p775
ss(Vimage
p776
g748
tp777
(dp778
Vinstall-stem
p779
Vvmlinux
p780
ss(Vdescription
p781
g748
NV5kc-malta
p782
tp783
(dp784
Vhardware
p785
VMIPS Malta
p786
sVhardware-long
p787
VMIPS Malta boards
p788
ss(Vimage
p789
g748
NVocteon
p790
tp791
(dp792
Vconfigs
p793
(lp794
Vkernelarch-mips/config.octeon
p795
ass(g200
g748
g168
tp796
(dp797
g203
(lp798
V5kc-malta
p799
aVocteon
p800
asg207
I01
ss(Vbase
p801
Vmips64el
p802
tp803
(dp804
g166
(lp805
g168
asVkernel-arch
p806
Vmips
p807
ss(Vimage
p808
g802
NVloongson-3
p809
tp810
(dp811
Vconfigs
p812
(lp813
Vkernelarch-mips/config.loongson-3
p814
ass(Vbuild
p815
g802
tp816
(dp817
Vsigned-modules
p818
I00
sVimage-file
p819
Vvmlinux
p820
ss(Vimage
p821
g802
NV5kc-malta
p822
tp823
(dp824
Vconfigs
p825
(lp826
Vkernelarch-mips/config.malta
p827
aVkernelarch-mips/config.mips64r2
p828
ass(Vdescription
p829
g802
NVocteon
p830
tp831
(dp832
Vhardware
p833
VOcteon
p834
sVhardware-long
p835
VCavium Networks Octeon
p836
ss(Vdescription
p837
g802
NVloongson-3
p838
tp839
(dp840
Vhardware
p841
VLoongson 3A/3B
p842
sVhardware-long
p843
VLoongson 3A or 3B based systems (e.g. from Loongson or Lemote)
p844
ss(Vimage
p845
g802
tp846
(dp847
Vinstall-stem
p848
Vvmlinux
p849
ss(Vdescription
p850
g802
NV5kc-malta
p851
tp852
(dp853
Vhardware
p854
VMIPS Malta
p855
sVhardware-long
p856
VMIPS Malta boards
p857
ss(Vimage
p858
g802
NVocteon
p859
tp860
(dp861
Vconfigs
p862
(lp863
Vkernelarch-mips/config.octeon
p864
ass(g200
g802
g168
tp865
(dp866
g203
(lp867
V5kc-malta
p868
aVloongson-3
p869
aVocteon
p870
asg207
I01
ss(Vbase
p871
Vpowerpc
p872
tp873
(dp874
g166
(lp875
g168
asVkernel-arch
p876
Vpowerpc
p877
ss(Vdescription
p878
g872
NVpowerpc64
p879
tp880
(dp881
Vhardware
p882
V64-bit PowerPC
p883
ss(Vbuild
p884
g872
tp885
(dp886
Vvdso
p887
I01
sVimage-file
p888
Vvmlinux
p889
ss(Vimage
p890
g872
NVpowerpc-smp
p891
tp892
(dp893
Vconfigs
p894
(lp895
Vpowerpc/config.powerpc
p896
aVpowerpc/config.powerpc-smp
p897
ass(Vdescription
p898
g872
NVpowerpc
p899
tp900
(dp901
Vhardware
p902
Vuniprocessor 32-bit PowerPC
p903
ss(Vimage
p904
g872
NVpowerpc64
p905
tp906
(dp907
Vconfigs
p908
(lp909
Vkernelarch-powerpc/config-arch-64
p910
aVkernelarch-powerpc/config-arch-64-be
p911
ass(Vdescription
p912
g872
NVpowerpc-smp
p913
tp914
(dp915
Vhardware
p916
Vmultiprocessor 32-bit PowerPC
p917
ss(Vimage
p918
g872
tp919
(dp920
Vsuggests
p921
Vmkvmlinuz
p922
sVinstall-stem
p923
Vvmlinux
p924
sVconfigs
p925
(lp926
ss(g200
g872
g168
tp927
(dp928
g203
(lp929
Vpowerpc
p930
aVpowerpc-smp
p931
aVpowerpc64
p932
asg207
I01
ss(Vbase
p933
Vpowerpcspe
p934
tp935
(dp936
g166
(lp937
g168
asVkernel-arch
p938
Vpowerpc
p939
ss(Vbuild
p940
g934
tp941
(dp942
Vsigned-modules
p943
I00
sVimage-file
p944
Vvmlinux
p945
sVvdso
p946
I01
ss(Vimage
p947
g934
tp948
(dp949
Vsuggests
p950
Vmkvmlinuz
p951
sVinstall-stem
p952
Vvmlinux
p953
ss(Vdescription
p954
g934
tp955
(dp956
Vhardware
p957
V32-bit PowerPC with SPE (instead of AltiVec) with SMP support
p958
ss(g200
g934
g168
tp959
(dp960
g203
(lp961
Vpowerpcspe
p962
asg207
I01
ss(Vbase
p963
Vppc64
p964
tp965
(dp966
g166
(lp967
g168
asVkernel-arch
p968
Vpowerpc
p969
ss(Vdescription
p970
g964
NVpowerpc64
p971
tp972
(dp973
Vhardware
p974
V64-bit PowerPC
p975
ss(Vbuild
p976
g964
tp977
(dp978
Vsigned-modules
p979
I00
sVimage-file
p980
Vvmlinux
p981
sVvdso
p982
I01
ss(Vimage
p983
g964
NVpowerpc64
p984
tp985
(dp986
Vconfigs
p987
(lp988
Vkernelarch-powerpc/config-arch-64
p989
aVkernelarch-powerpc/config-arch-64-be
p990
ass(Vimage
p991
g964
tp992
(dp993
Vsuggests
p994
Vmkvmlinuz
p995
sVinstall-stem
p996
Vvmlinux
p997
sVconfigs
p998
(lp999
ss(g200
g964
g168
tp1000
(dp1001
g203
(lp1002
Vpowerpc64
p1003
asg207
I01
ss(Vbase
p1004
Vppc64el
p1005
tp1006
(dp1007
g166
(lp1008
g168
asVkernel-arch
p1009
Vpowerpc
p1010
ss(Vdescription
p1011
g1005
NVpowerpc64le
p1012
tp1013
(dp1014
Vhardware
p1015
VLittle-endian 64-bit PowerPC
p1016
ss(Vbuild
p1017
g1005
tp1018
(dp1019
Vvdso
p1020
I01
sVimage-file
p1021
Vvmlinux
p1022
ss(Vimage
p1023
g1005
tp1024
(dp1025
Vsuggests
p1026
Vmkvmlinuz
p1027
sVinstall-stem
p1028
Vvmlinux
p1029
sVconfigs
p1030
(lp1031
ss(Vimage
p1032
g1005
NVpowerpc64le
p1033
tp1034
(dp1035
Vconfigs
p1036
(lp1037
Vkernelarch-powerpc/config-arch-64
p1038
aVkernelarch-powerpc/config-arch-64-le
p1039
ass(g200
g1005
g168
tp1040
(dp1041
g203
(lp1042
Vpowerpc64le
p1043
asg207
I01
ss(Vbase
p1044
Vs390
p1045
tp1046
(dp1047
Vfeaturesets
p1048
(lp1049
sVkernel-arch
p1050
Vs390
p1051
ss(Vbase
p1052
Vs390x
p1053
tp1054
(dp1055
g166
(lp1056
g168
asVkernel-arch
p1057
Vs390
p1058
ss(Vdescription
p1059
g1053
NVs390x
p1060
tp1061
(dp1062
Vhardware
p1063
VIBM zSeries
p1064
ss(Vbuild
p1065
g1053
tp1066
(dp1067
Vvdso
p1068
I01
sVimage-file
p1069
Varch/s390/boot/image
p1070
ss(Vbuild
p1071
g1053
NVs390x
p1072
tp1073
(dp1074
Vdebug-info
p1075
I01
ss(Vrelations
p1076
g1053
tp1077
(dp1078
Vheaders%gcc-6
p1079
Vlinux-compiler-gcc-6-s390
p1080
ss(Vimage
p1081
g1053
tp1082
(dp1083
Vinstall-stem
p1084
Vvmlinuz
p1085
sVbootloaders
p1086
(lp1087
Vs390-tools
p1088
ass(g200
g1053
g168
tp1089
(dp1090
g203
(lp1091
Vs390x
p1092
asg207
I01
ss(Vbase
p1093
Vsh3
p1094
tp1095
(dp1096
Vfeaturesets
p1097
(lp1098
sVkernel-arch
p1099
Vsh
p1100
ss(Vbase
p1101
Vsh4
p1102
tp1103
(dp1104
g166
(lp1105
g168
asVkernel-arch
p1106
Vsh
p1107
ss(Vbuild
p1108
g1102
tp1109
(dp1110
Vsigned-modules
p1111
I00
sVimage-file
p1112
Varch/sh/boot/zImage
p1113
ss(Vdescription
p1114
g1102
NVsh7751r
p1115
tp1116
(dp1117
Vhardware
p1118
Vsh7751r
p1119
sVhardware-long
p1120
VRenesas SH7751R R2D plus board
p1121
ss(Vdescription
p1122
g1102
NVsh7785lcr
p1123
tp1124
(dp1125
Vhardware
p1126
Vsh7785lcr
p1127
sVhardware-long
p1128
VRenesas SH7785 reference board
p1129
ss(Vimage
p1130
g1102
tp1131
(dp1132
Vinstall-stem
p1133
Vvmlinuz
p1134
ss(Vimage
p1135
g1102
NVsh7785lcr
p1136
tp1137
(dp1138
Vrecommends
p1139
Vu-boot-tools
p1140
sVcheck-size
p1141
L4194304L
ss(g200
g1102
g168
tp1142
(dp1143
g203
(lp1144
Vsh7751r
p1145
aVsh7785lcr
p1146
asg207
I01
ss(Vbase
p1147
Vsparc
p1148
tp1149
(dp1150
Vfeaturesets
p1151
(lp1152
sVkernel-arch
p1153
Vsparc
p1154
ss(Vbase
p1155
Vsparc64
p1156
tp1157
(dp1158
g166
(lp1159
g168
asVkernel-arch
p1160
Vsparc
p1161
ss(Vbuild
p1162
g1156
tp1163
(dp1164
Vsigned-modules
p1165
I00
sVimage-file
p1166
Varch/sparc/boot/zImage
p1167
ss(Vimage
p1168
g1156
NVsparc64
p1169
tp1170
(dp1171
Vconfigs
p1172
(lp1173
Vkernelarch-sparc/config-up
p1174
ass(Vimage
p1175
g1156
NVsparc64-smp
p1176
tp1177
(dp1178
Vconfigs
p1179
(lp1180
Vkernelarch-sparc/config-smp
p1181
ass(Vimage
p1182
g1156
tp1183
(dp1184
Vsuggests
p1185
Vsilo, fdutils
p1186
sVinstall-stem
p1187
Vvmlinuz
p1188
sVconfigs
p1189
(lp1190
ss(Vdescription
p1191
g1156
NVsparc64-smp
p1192
tp1193
(dp1194
Vhardware
p1195
Vmultiprocessor 64-bit UltraSPARC
p1196
ss(Vdescription
p1197
g1156
NVsparc64
p1198
tp1199
(dp1200
Vhardware
p1201
Vuniprocessor 64-bit UltraSPARC
p1202
ss(g200
g1156
g168
tp1203
(dp1204
g203
(lp1205
Vsparc64
p1206
aVsparc64-smp
p1207
asg207
I01
ss(Vbase
p1208
Vtilegx
p1209
tp1210
(dp1211
Vfeaturesets
p1212
(lp1213
sVkernel-arch
p1214
Vtile
p1215
ss(Vbase
p1216
Vx32
p1217
tp1218
(dp1219
Vfeaturesets
p1220
(lp1221
sVkernel-arch
p1222
Vx86
p1223
ss(Vdescription
p1224
NVrt
p1225
tp1226
(dp1227
Vparts
p1228
(lp1229
Vrt
p1230
asVpart-long-rt
p1231
VThis kernel includes the PREEMPT_RT realtime patch set.
p1232
sVpart-short-rt
p1233
VPREEMPT_RT
p1234
ss(Vabi
p1235
Ng1225
tp1236
(dp1237
Vignore-changes
p1238
(lp1239
V*
p1240
ass(Vversion
p1241
tp1242
(dp1243
Vupstream
p1244
V4.9
p1245
sVsource
p1246
V4.9.210-1
p1247
sVabiname
p1248
V4.9.0-12
p1249
sVabiname_base
p1250
V4.9.0
p1251
ss.