cdebian_linux.config
ConfigCore
p0
(tRp1
(Vabi
p2
tp3
(dp4
Vabiname
p5
V5
p6
sVignore-changes
p7
(lp8
V__cpuhp_*
p9
aVbpf_analyzer
p10
aVcxl_*
p11
aVinet_frag_*
p12
aVinet_frags_*
p13
aVmm_iommu_*
p14
aVmv_mbus_*
p15
aVregister_cxl_calls
p16
aVregister_key_type
p17
aVunregister_cxl_calls
p18
aVmodule:arch/x86/kvm/*
p19
aVmodule:drivers/crypto/ccp/*
p20
aVmodule:drivers/hv/*
p21
aVmodule:drivers/iio/common/hid-sensors/*
p22
aVmodule:drivers/iio/common/st_sensors/**
p23
aVmodule:drivers/net/wireless/**
p24
aVmodule:drivers/nvdimm/*
p25
aVmodule:drivers/power/supply/bq27xxx_battery
p26
aVmodule:drivers/s390/net/qeth
p27
aVmodule:drivers/s390/net/qeth*
p28
aVmodule:drivers/scsi/cxgbi/*
p29
aVmodule:drivers/scsi/libiscs*
p30
aVmodule:drivers/scsi/qla2xxx/qla2xxx
p31
aVmodule:drivers/scsi/ufs/*
p32
aVmodule:drivers/target/**
p33
aVmodule:drivers/usb/chipidea/**
p34
aVmodule:drivers/usb/gadget/**
p35
aVmodule:drivers/usb/host/**
p36
aVmodule:drivers/usb/musb/**
p37
aVmodule:fs/nfs/nfs
p38
aVmodule:net/ceph/libceph
p39
aVmodule:net/l2tp/**
p40
aVmodule:sound/firewire/snd-firewire-lib
p41
aVbtree_*
p42
aVvisitor*
p43
aVcan_rx_register
p44
aVip6_xmit
p45
aVmodule:net/dccp/dccp
p46
aVmodule:net/rds/rds
p47
aVdevfreq_*
p48
aVdevm_devfreq_*
p49
aVupdate_devfreq
p50
aVmodule:drivers/infiniband/**
p51
aVacpi_ec_add_query_handler
p52
aVacpi_ec_remove_query_handler
p53
aVfirst_ec
p54
aVdebugfs_create_automount
p55
ass(Vbase
p56
tp57
(dp58
Varches
p59
(lp60
Valpha
p61
aVamd64
p62
aVarm64
p63
aVarmel
p64
aVarmhf
p65
aVhppa
p66
aVi386
p67
aVm68k
p68
aVmips
p69
aVmipsel
p70
aVmipsn32
p71
aVmipsn32el
p72
aVmips64
p73
aVmips64el
p74
aVpowerpc
p75
aVpowerpcspe
p76
aVppc64
p77
aVppc64el
p78
aVs390
p79
aVs390x
p80
aVsh3
p81
aVsh4
p82
aVsparc
p83
aVsparc64
p84
aVtilegx
p85
aVx32
p86
asVcompiler
p87
Vgcc-6
p88
sVfeaturesets
p89
(lp90
Vnone
p91
aVrt
p92
ass(Vbuild
p93
tp94
(dp95
Vdebug-info
p96
I01
sVsigned-modules
p97
I00
ss(Vbase
p98
NVrt
p99
tp100
(dp101
Venabled
p102
I01
ss(Vdescription
p103
tp104
(dp105
Vpart-long-up
p106
VThis kernel is not suitable for SMP (multi-processor,\u000amulti-core or hyper-threaded) systems.
p107
sVpart-long-xen
p108
VThis kernel also runs on a Xen hypervisor.\u000aIt supports both privileged (dom0) and unprivileged (domU) operation.
p109
ss(Vimage
p110
tp111
(dp112
Vinitramfs-generators
p113
(lp114
Vinitramfs-tools
p115
aVinitramfs-fallback
p116
ass(Vrelations
p117
tp118
(dp119
Vgcc-6
p120
Vgcc-6 <!stage1 !cross>, gcc-6-@gnu-type-package@ <!stage1 cross>
p121
sVinitramfs-fallback
p122
Vlinux-initramfs-tool
p123
sVinitramfs-tools
p124
Vinitramfs-tools (>= 0.120+deb8u2)
p125
ss(Vbase
p126
Valpha
p127
tp128
(dp129
Vkernel-arch
p130
Valpha
p131
sVfeaturesets
p132
(lp133
Vnone
p134
ass(Vbuild
p135
g127
tp136
(dp137
Vimage-file
p138
Varch/alpha/boot/vmlinux.gz
p139
sVsigned-modules
p140
I00
ss(Vimage
p141
g127
tp142
(dp143
Vsuggests
p144
Vaboot, fdutils
p145
sVinstall-stem
p146
Vvmlinuz
p147
ss(Vdescription
p148
g127
NValpha-generic
p149
tp150
(dp151
Vhardware
p152
VAlpha
p153
sVhardware-long
p154
VDEC Alpha systems with extended kernel start address (Wildfire, Titan, Marvel)
p155
ss(Vdescription
p156
g127
NValpha-smp
p157
tp158
(dp159
Vhardware
p160
VAlpha SMP
p161
sVhardware-long
p162
VDEC Alpha SMP systems with extended kernel start address (Wildfire, Titan, Marvel)
p163
ss(Vbase
p164
g127
g134
tp165
(dp166
Vflavours
p167
(lp168
Valpha-generic
p169
aValpha-smp
p170
asVimplicit-flavour
p171
I01
ss(Vbase
p172
Vamd64
p173
tp174
(dp175
Vfeaturesets
p176
(lp177
Vnone
p178
aVrt
p179
asVkernel-arch
p180
Vx86
p181
ss(Vbuild
p182
g173
tp183
(dp184
Vdebug-info
p185
I01
sVimage-file
p186
Varch/x86/boot/bzImage
p187
sVvdso
p188
I01
ss(Vimage
p189
g173
tp190
(dp191
Vbootloaders
p192
(lp193
Vgrub-pc
p194
aVgrub-efi-amd64
p195
aVextlinux
p196
asVinstall-stem
p197
Vvmlinuz
p198
sVbreaks
p199
Vxserver-xorg-input-vmmouse (<< 1:13.0.99)
p200
ss(Vrelations
p201
g173
tp202
(dp203
Vheaders%gcc-6
p204
Vlinux-compiler-gcc-6-x86
p205
ss(Vdescription
p206
g173
NVamd64
p207
tp208
(dp209
Vhardware
p210
V64-bit PCs
p211
sVhardware-long
p212
VPCs with AMD64, Intel 64 or VIA Nano processors
p213
ss(Vbase
p214
g173
Vnone
p215
tp216
(dp217
Vflavours
p218
(lp219
Vamd64
p220
ass(Vdescription
p221
g173
g215
Vamd64
p222
tp223
(dp224
Vparts
p225
(lp226
Vxen
p227
ass(Vbase
p228
g173
Vrt
p229
tp230
(dp231
Vflavours
p232
(lp233
Vamd64
p234
ass(Vbase
p235
Varm64
p236
tp237
(dp238
Vkernel-arch
p239
Varm64
p240
sVfeaturesets
p241
(lp242
Vnone
p243
ass(Vbuild
p244
g236
tp245
(dp246
Vdebug-info
p247
I01
sVimage-file
p248
Varch/arm64/boot/Image
p249
sVvdso
p250
I01
ss(Vimage
p251
g236
tp252
(dp253
Vinstall-stem
p254
Vvmlinuz
p255
sVbreaks
p256
Vlibmozjs185-1.0, libmozjs-24-0 (<< 24.2.0-5.1~)
p257
ss(Vdescription
p258
g236
NVarm64
p259
tp260
(dp261
Vhardware
p262
V64-bit ARMv8 machines
p263
ss(Vimage
p264
g236
NVarm64
p265
tp266
(dp267
s(Vbase
p268
g236
Vnone
p269
tp270
(dp271
Vflavours
p272
(lp273
Varm64
p274
ass(Vbase
p275
Varmel
p276
tp277
(dp278
Vkernel-arch
p279
Varm
p280
sg132
(lp281
g134
ass(Vbuild
p282
g276
tp283
(dp284
Vimage-file
p285
Varch/arm/boot/zImage
p286
sVsigned-modules
p287
I00
ss(Vimage
p288
g276
tp289
(dp290
Vinstall-stem
p291
Vvmlinuz
p292
ss(Vrelations
p293
g276
tp294
(dp295
Vheaders%gcc-6
p296
Vlinux-compiler-gcc-6-arm
p297
ss(Vdescription
p298
g276
NVmarvell
p299
tp300
(dp301
Vhardware
p302
VMarvell Kirkwood/Orion
p303
sVhardware-long
p304
VMarvell Kirkwood based systems (SheevaPlug, QNAP TS-119/TS-219, etc)\u000aand Orion 5181, 5182 and 5281 based systems (QNAP TS-109/TS-209, etc)
p305
ss(Vimage
p306
g276
NVmarvell
p307
tp308
(dp309
Vrecommends
p310
Vu-boot-tools
p311
sVcheck-size
p312
L2097080L
sVcheck-size-with-dtb
p313
I01
sVbreaks
p314
Vflash-kernel (<< 3.57~)
p315
ss(g164
g276
g134
tp316
(dp317
g167
(lp318
Vmarvell
p319
asg171
I01
ss(Vbase
p320
Varmhf
p321
tp322
(dp323
Vkernel-arch
p324
Varm
p325
sg132
(lp326
g134
ass(Vbuild
p327
g321
tp328
(dp329
Vimage-file
p330
Varch/arm/boot/zImage
p331
sVvdso
p332
I01
ss(Vimage
p333
g321
tp334
(dp335
Vinstall-stem
p336
Vvmlinuz
p337
ss(Vrelations
p338
g321
tp339
(dp340
Vheaders%gcc-6
p341
Vlinux-compiler-gcc-6-arm
p342
ss(Vdescription
p343
g321
NVarmmp
p344
tp345
(dp346
Vhardware
p347
VARMv7 multiplatform compatible SoCs
p348
sVhardware-long
p349
VARMv7 multiplatform kernel. See\u000ahttps://wiki.debian.org/DebianKernel/ARMMP for details of supported\u000aplatforms
p350
ss(Vdescription
p351
g321
NVarmmp-lpae
p352
tp353
(dp354
Vhardware
p355
VARMv7 multiplatform compatible SoCs supporting LPAE
p356
sVhardware-long
p357
VARMv7 multiplatform kernel supporting LPAE. See\u000ahttps://wiki.debian.org/DebianKernel/ARMMP for details of supported\u000aplatforms.
p358
ss(g164
g321
g134
tp359
(dp360
g167
(lp361
Varmmp
p362
aVarmmp-lpae
p363
asg171
I01
ss(Vbase
p364
Vhppa
p365
tp366
(dp367
Vkernel-arch
p368
Vparisc
p369
sg132
(lp370
g134
ass(Vbuild
p371
g365
tp372
(dp373
Vimage-file
p374
Vvmlinux
p375
sVsigned-modules
p376
I00
ss(Vimage
p377
g365
tp378
(dp379
Vsuggests
p380
Vpalo
p381
sVinstall-stem
p382
Vvmlinux
p383
ss(Vdescription
p384
g365
NVparisc
p385
tp386
(dp387
Vhardware
p388
V32-bit PA-RISC
p389
sVhardware-long
p390
VHP PA-RISC 32-bit systems with max 4 GB RAM
p391
ss(Vbase
p392
g365
NVparisc64-smp
p393
tp394
(dp395
Vcflags
p396
V-fno-cse-follow-jumps
p397
sVoverride-host-type
p398
Vhppa64-linux-gnu
p399
ss(Vdescription
p400
g365
NVparisc64-smp
p401
tp402
(dp403
Vhardware
p404
Vmultiprocessor 64-bit PA-RISC
p405
sVhardware-long
p406
VHP PA-RISC 64-bit SMP systems with support for more than 4 GB RAM
p407
ss(Vrelations
p408
g365
tp409
(dp410
Vgcc-6
p411
Vgcc-6 <!stage1 !cross>, binutils-hppa64-linux-gnu <!stage1 !cross>, gcc-6-hppa64-linux-gnu <!stage1 !cross>, gcc-6-hppa-linux-gnu <!stage1 cross>, binutils-hppa64-linux-gnu <!stage1 cross>, gcc-6-hppa64-linux-gnu <!stage1 cross>
p412
ss(g164
g365
g134
tp413
(dp414
g167
(lp415
Vparisc
p416
aVparisc64-smp
p417
asg171
I01
ss(Vbase
p418
Vi386
p419
tp420
(dp421
Vfeaturesets
p422
(lp423
Vnone
p424
aVrt
p425
asVkernel-arch
p426
Vx86
p427
ss(Vbuild
p428
g419
tp429
(dp430
Vimage-file
p431
Varch/x86/boot/bzImage
p432
sVvdso
p433
I01
ss(Vdescription
p434
g419
tp435
(dp436
Vpart-long-pae
p437
VThis kernel requires PAE (Physical Address Extension).\u000aThis feature is supported by the Intel Pentium Pro/II/III/4/4M/D, Xeon,\u000aCore and Atom; AMD Geode NX, Athlon (K7), Duron, Opteron, Sempron,\u000aTurion or Phenom; Transmeta Efficeon; VIA C7; and some other processors.
p438
ss(Vimage
p439
g419
tp440
(dp441
Vbootloaders
p442
(lp443
Vgrub-pc
p444
aVextlinux
p445
asVinstall-stem
p446
Vvmlinuz
p447
sVbreaks
p448
Vxserver-xorg-input-vmmouse (<< 1:13.0.99)
p449
ss(Vrelations
p450
g419
tp451
(dp452
Vheaders%gcc-6
p453
Vlinux-compiler-gcc-6-x86
p454
ss(Vdescription
p455
g419
NV686
p456
tp457
(dp458
Vhardware
p459
Volder PCs
p460
sVhardware-long
p461
VPCs with one or more processors not supporting PAE
p462
ss(Vbuild
p463
g419
NV686-pae
p464
tp465
(dp466
Vdebug-info
p467
I01
ss(Vdescription
p468
g419
NV686-pae
p469
tp470
(dp471
Vhardware
p472
Vmodern PCs
p473
sVhardware-long
p474
VPCs with one or more processors supporting PAE
p475
sVparts
p476
(lp477
Vpae
p478
ass(Vbase
p479
g419
Vnone
p480
tp481
(dp482
Vflavours
p483
(lp484
V686
p485
aV686-pae
p486
ass(Vdescription
p487
g419
g480
V686-pae
p488
tp489
(dp490
Vparts
p491
(lp492
Vxen
p493
ass(Vbase
p494
g419
Vrt
p495
tp496
(dp497
Vflavours
p498
(lp499
V686-pae
p500
ass(Vbase
p501
Vm68k
p502
tp503
(dp504
Vcflags
p505
V-ffreestanding
p506
sVkernel-arch
p507
Vm68k
p508
sg132
(lp509
g134
ass(Vbuild
p510
g502
tp511
(dp512
Vimage-file
p513
Vvmlinux.gz
p514
sVsigned-modules
p515
I00
ss(Vimage
p516
g502
tp517
(dp518
Vsuggests
p519
Vvmelilo, fdutils
p520
sVinstall-stem
p521
Vvmlinuz
p522
ss(Vdescription
p523
g502
NVm68k
p524
tp525
(dp526
Vhardware
p527
VMotorola MC68020+ family
p528
ss(g164
g502
g134
tp529
(dp530
g167
(lp531
Vm68k
p532
asg171
I01
ss(Vbase
p533
Vmips
p534
tp535
(dp536
Vkernel-arch
p537
Vmips
p538
sg132
(lp539
g134
ass(Vbuild
p540
g534
tp541
(dp542
Vimage-file
p543
Vvmlinux
p544
sVsigned-modules
p545
I00
ss(Vimage
p546
g534
tp547
(dp548
Vinstall-stem
p549
Vvmlinux
p550
ss(Vdescription
p551
g534
NV4kc-malta
p552
tp553
(dp554
Vhardware
p555
VMIPS Malta
p556
sVhardware-long
p557
VMIPS Malta boards
p558
ss(Vimage
p559
g534
NV4kc-malta
p560
tp561
(dp562
Vconfigs
p563
(lp564
Vkernelarch-mips/config.malta
p565
aVkernelarch-mips/config.mips32r2
p566
ass(Vdescription
p567
g534
NV5kc-malta
p568
tp569
(dp570
Vhardware
p571
VMIPS Malta (64-bit)
p572
sVhardware-long
p573
VMIPS Malta boards (64-bit)
p574
ss(Vimage
p575
g534
NV5kc-malta
p576
tp577
(dp578
Vconfigs
p579
(lp580
Vkernelarch-mips/config.malta
p581
aVkernelarch-mips/config.mips64r2
p582
ass(Vdescription
p583
g534
NVocteon
p584
tp585
(dp586
Vhardware
p587
VOcteon
p588
sVhardware-long
p589
VCavium Networks Octeon
p590
ss(Vimage
p591
g534
NVocteon
p592
tp593
(dp594
Vconfigs
p595
(lp596
Vkernelarch-mips/config.octeon
p597
ass(g164
g534
g134
tp598
(dp599
g167
(lp600
V4kc-malta
p601
aV5kc-malta
p602
aVocteon
p603
asg171
I01
ss(Vbase
p604
Vmipsel
p605
tp606
(dp607
Vkernel-arch
p608
Vmips
p609
sg132
(lp610
g134
ass(Vbuild
p611
g605
tp612
(dp613
Vimage-file
p614
Vvmlinux
p615
sVsigned-modules
p616
I00
ss(Vimage
p617
g605
tp618
(dp619
Vinstall-stem
p620
Vvmlinux
p621
ss(Vdescription
p622
g605
NV4kc-malta
p623
tp624
(dp625
Vhardware
p626
VMIPS Malta
p627
sVhardware-long
p628
VMIPS Malta boards
p629
ss(Vimage
p630
g605
NV4kc-malta
p631
tp632
(dp633
Vconfigs
p634
(lp635
Vkernelarch-mips/config.malta
p636
aVkernelarch-mips/config.mips32r2
p637
ass(Vdescription
p638
g605
NV5kc-malta
p639
tp640
(dp641
Vhardware
p642
VMIPS Malta (64-bit)
p643
sVhardware-long
p644
VMIPS Malta boards (64-bit)
p645
ss(Vimage
p646
g605
NV5kc-malta
p647
tp648
(dp649
Vconfigs
p650
(lp651
Vkernelarch-mips/config.malta
p652
aVkernelarch-mips/config.mips64r2
p653
ass(Vdescription
p654
g605
NVloongson-3
p655
tp656
(dp657
Vhardware
p658
VLoongson 3A/3B
p659
sVhardware-long
p660
VLoongson 3A or 3B based systems (e.g. from Loongson or Lemote)
p661
ss(Vimage
p662
g605
NVloongson-3
p663
tp664
(dp665
Vconfigs
p666
(lp667
Vkernelarch-mips/config.loongson-3
p668
ass(Vdescription
p669
g605
NVocteon
p670
tp671
(dp672
Vhardware
p673
VOcteon
p674
sVhardware-long
p675
VCavium Networks Octeon
p676
ss(Vimage
p677
g605
NVocteon
p678
tp679
(dp680
Vconfigs
p681
(lp682
Vkernelarch-mips/config.octeon
p683
ass(g164
g605
g134
tp684
(dp685
g167
(lp686
V4kc-malta
p687
aV5kc-malta
p688
aVloongson-3
p689
aVocteon
p690
asg171
I01
ss(Vbase
p691
Vmipsn32
p692
tp693
(dp694
Vkernel-arch
p695
Vmips
p696
sVfeaturesets
p697
(lp698
ss(Vbase
p699
Vmipsn32el
p700
tp701
(dp702
Vkernel-arch
p703
Vmips
p704
sVfeaturesets
p705
(lp706
ss(Vbase
p707
Vmips64
p708
tp709
(dp710
Vkernel-arch
p711
Vmips
p712
sg132
(lp713
g134
ass(Vbuild
p714
g708
tp715
(dp716
Vimage-file
p717
Vvmlinux
p718
sVsigned-modules
p719
I00
ss(Vimage
p720
g708
tp721
(dp722
Vinstall-stem
p723
Vvmlinux
p724
ss(Vdescription
p725
g708
NV5kc-malta
p726
tp727
(dp728
Vhardware
p729
VMIPS Malta
p730
sVhardware-long
p731
VMIPS Malta boards
p732
ss(Vimage
p733
g708
NV5kc-malta
p734
tp735
(dp736
Vconfigs
p737
(lp738
Vkernelarch-mips/config.malta
p739
aVkernelarch-mips/config.mips64r2
p740
ass(Vdescription
p741
g708
NVocteon
p742
tp743
(dp744
Vhardware
p745
VOcteon
p746
sVhardware-long
p747
VCavium Networks Octeon
p748
ss(Vimage
p749
g708
NVocteon
p750
tp751
(dp752
Vconfigs
p753
(lp754
Vkernelarch-mips/config.octeon
p755
ass(g164
g708
g134
tp756
(dp757
g167
(lp758
V5kc-malta
p759
aVocteon
p760
asg171
I01
ss(Vbase
p761
Vmips64el
p762
tp763
(dp764
Vkernel-arch
p765
Vmips
p766
sg132
(lp767
g134
ass(Vbuild
p768
g762
tp769
(dp770
Vimage-file
p771
Vvmlinux
p772
sVsigned-modules
p773
I00
ss(Vimage
p774
g762
tp775
(dp776
Vinstall-stem
p777
Vvmlinux
p778
ss(Vdescription
p779
g762
NV5kc-malta
p780
tp781
(dp782
Vhardware
p783
VMIPS Malta
p784
sVhardware-long
p785
VMIPS Malta boards
p786
ss(Vimage
p787
g762
NV5kc-malta
p788
tp789
(dp790
Vconfigs
p791
(lp792
Vkernelarch-mips/config.malta
p793
aVkernelarch-mips/config.mips64r2
p794
ass(Vdescription
p795
g762
NVloongson-3
p796
tp797
(dp798
Vhardware
p799
VLoongson 3A/3B
p800
sVhardware-long
p801
VLoongson 3A or 3B based systems (e.g. from Loongson or Lemote)
p802
ss(Vimage
p803
g762
NVloongson-3
p804
tp805
(dp806
Vconfigs
p807
(lp808
Vkernelarch-mips/config.loongson-3
p809
ass(Vdescription
p810
g762
NVocteon
p811
tp812
(dp813
Vhardware
p814
VOcteon
p815
sVhardware-long
p816
VCavium Networks Octeon
p817
ss(Vimage
p818
g762
NVocteon
p819
tp820
(dp821
Vconfigs
p822
(lp823
Vkernelarch-mips/config.octeon
p824
ass(g164
g762
g134
tp825
(dp826
g167
(lp827
V5kc-malta
p828
aVloongson-3
p829
aVocteon
p830
asg171
I01
ss(Vbase
p831
Vpowerpc
p832
tp833
(dp834
Vkernel-arch
p835
Vpowerpc
p836
sg132
(lp837
g134
ass(Vbuild
p838
g832
tp839
(dp840
Vimage-file
p841
Vvmlinux
p842
sVvdso
p843
I01
ss(Vimage
p844
g832
tp845
(dp846
Vconfigs
p847
(lp848
sVsuggests
p849
Vmkvmlinuz
p850
sVinstall-stem
p851
Vvmlinux
p852
ss(Vdescription
p853
g832
NVpowerpc
p854
tp855
(dp856
Vhardware
p857
Vuniprocessor 32-bit PowerPC
p858
ss(Vdescription
p859
g832
NVpowerpc-smp
p860
tp861
(dp862
Vhardware
p863
Vmultiprocessor 32-bit PowerPC
p864
ss(Vimage
p865
g832
NVpowerpc-smp
p866
tp867
(dp868
Vconfigs
p869
(lp870
Vpowerpc/config.powerpc
p871
aVpowerpc/config.powerpc-smp
p872
ass(Vdescription
p873
g832
NVpowerpc64
p874
tp875
(dp876
Vhardware
p877
V64-bit PowerPC
p878
ss(Vimage
p879
g832
NVpowerpc64
p880
tp881
(dp882
Vconfigs
p883
(lp884
Vkernelarch-powerpc/config-arch-64
p885
aVkernelarch-powerpc/config-arch-64-be
p886
ass(g164
g832
g134
tp887
(dp888
g167
(lp889
Vpowerpc
p890
aVpowerpc-smp
p891
aVpowerpc64
p892
asg171
I01
ss(Vbase
p893
Vpowerpcspe
p894
tp895
(dp896
Vkernel-arch
p897
Vpowerpc
p898
sg132
(lp899
g134
ass(Vbuild
p900
g894
tp901
(dp902
Vimage-file
p903
Vvmlinux
p904
sVsigned-modules
p905
I00
sVvdso
p906
I01
ss(Vimage
p907
g894
tp908
(dp909
Vsuggests
p910
Vmkvmlinuz
p911
sVinstall-stem
p912
Vvmlinux
p913
ss(Vdescription
p914
g894
tp915
(dp916
Vhardware
p917
V32-bit PowerPC with SPE (instead of AltiVec) with SMP support
p918
ss(g164
g894
g134
tp919
(dp920
g167
(lp921
Vpowerpcspe
p922
asg171
I01
ss(Vbase
p923
Vppc64
p924
tp925
(dp926
Vkernel-arch
p927
Vpowerpc
p928
sg132
(lp929
g134
ass(Vbuild
p930
g924
tp931
(dp932
Vimage-file
p933
Vvmlinux
p934
sVsigned-modules
p935
I00
sVvdso
p936
I01
ss(Vimage
p937
g924
tp938
(dp939
Vconfigs
p940
(lp941
sVsuggests
p942
Vmkvmlinuz
p943
sVinstall-stem
p944
Vvmlinux
p945
ss(Vdescription
p946
g924
NVpowerpc64
p947
tp948
(dp949
Vhardware
p950
V64-bit PowerPC
p951
ss(Vimage
p952
g924
NVpowerpc64
p953
tp954
(dp955
Vconfigs
p956
(lp957
Vkernelarch-powerpc/config-arch-64
p958
aVkernelarch-powerpc/config-arch-64-be
p959
ass(g164
g924
g134
tp960
(dp961
g167
(lp962
Vpowerpc64
p963
asg171
I01
ss(Vbase
p964
Vppc64el
p965
tp966
(dp967
Vkernel-arch
p968
Vpowerpc
p969
sg132
(lp970
g134
ass(Vbuild
p971
g965
tp972
(dp973
Vimage-file
p974
Vvmlinux
p975
sVvdso
p976
I01
ss(Vimage
p977
g965
tp978
(dp979
Vconfigs
p980
(lp981
sVsuggests
p982
Vmkvmlinuz
p983
sVinstall-stem
p984
Vvmlinux
p985
ss(Vdescription
p986
g965
NVpowerpc64le
p987
tp988
(dp989
Vhardware
p990
VLittle-endian 64-bit PowerPC
p991
ss(Vimage
p992
g965
NVpowerpc64le
p993
tp994
(dp995
Vconfigs
p996
(lp997
Vkernelarch-powerpc/config-arch-64
p998
aVkernelarch-powerpc/config-arch-64-le
p999
ass(g164
g965
g134
tp1000
(dp1001
g167
(lp1002
Vpowerpc64le
p1003
asg171
I01
ss(Vbase
p1004
Vs390
p1005
tp1006
(dp1007
Vkernel-arch
p1008
Vs390
p1009
sVfeaturesets
p1010
(lp1011
ss(Vbase
p1012
Vs390x
p1013
tp1014
(dp1015
Vkernel-arch
p1016
Vs390
p1017
sg132
(lp1018
g134
ass(Vbuild
p1019
g1013
tp1020
(dp1021
Vimage-file
p1022
Varch/s390/boot/image
p1023
sVvdso
p1024
I01
ss(Vimage
p1025
g1013
tp1026
(dp1027
Vbootloaders
p1028
(lp1029
Vs390-tools
p1030
asVinstall-stem
p1031
Vvmlinuz
p1032
ss(Vrelations
p1033
g1013
tp1034
(dp1035
Vheaders%gcc-6
p1036
Vlinux-compiler-gcc-6-s390
p1037
ss(Vbuild
p1038
g1013
NVs390x
p1039
tp1040
(dp1041
Vdebug-info
p1042
I01
ss(Vdescription
p1043
g1013
NVs390x
p1044
tp1045
(dp1046
Vhardware
p1047
VIBM zSeries
p1048
ss(g164
g1013
g134
tp1049
(dp1050
g167
(lp1051
Vs390x
p1052
asg171
I01
ss(Vbase
p1053
Vsh3
p1054
tp1055
(dp1056
Vkernel-arch
p1057
Vsh
p1058
sVfeaturesets
p1059
(lp1060
ss(Vbase
p1061
Vsh4
p1062
tp1063
(dp1064
Vkernel-arch
p1065
Vsh
p1066
sg132
(lp1067
g134
ass(Vbuild
p1068
g1062
tp1069
(dp1070
Vimage-file
p1071
Varch/sh/boot/zImage
p1072
sVsigned-modules
p1073
I00
ss(Vimage
p1074
g1062
tp1075
(dp1076
Vinstall-stem
p1077
Vvmlinuz
p1078
ss(Vdescription
p1079
g1062
NVsh7751r
p1080
tp1081
(dp1082
Vhardware
p1083
Vsh7751r
p1084
sVhardware-long
p1085
VRenesas SH7751R R2D plus board
p1086
ss(Vdescription
p1087
g1062
NVsh7785lcr
p1088
tp1089
(dp1090
Vhardware
p1091
Vsh7785lcr
p1092
sVhardware-long
p1093
VRenesas SH7785 reference board
p1094
ss(Vimage
p1095
g1062
NVsh7785lcr
p1096
tp1097
(dp1098
Vrecommends
p1099
Vu-boot-tools
p1100
sVcheck-size
p1101
L4194304L
ss(g164
g1062
g134
tp1102
(dp1103
g167
(lp1104
Vsh7751r
p1105
aVsh7785lcr
p1106
asg171
I01
ss(Vbase
p1107
Vsparc
p1108
tp1109
(dp1110
Vkernel-arch
p1111
Vsparc
p1112
sVfeaturesets
p1113
(lp1114
ss(Vbase
p1115
Vsparc64
p1116
tp1117
(dp1118
Vkernel-arch
p1119
Vsparc
p1120
sg132
(lp1121
g134
ass(Vbuild
p1122
g1116
tp1123
(dp1124
Vimage-file
p1125
Varch/sparc/boot/zImage
p1126
sVsigned-modules
p1127
I00
ss(Vimage
p1128
g1116
tp1129
(dp1130
Vconfigs
p1131
(lp1132
sVsuggests
p1133
Vsilo, fdutils
p1134
sVinstall-stem
p1135
Vvmlinuz
p1136
ss(Vdescription
p1137
g1116
NVsparc64
p1138
tp1139
(dp1140
Vhardware
p1141
Vuniprocessor 64-bit UltraSPARC
p1142
ss(Vimage
p1143
g1116
NVsparc64
p1144
tp1145
(dp1146
Vconfigs
p1147
(lp1148
Vkernelarch-sparc/config-up
p1149
ass(Vdescription
p1150
g1116
NVsparc64-smp
p1151
tp1152
(dp1153
Vhardware
p1154
Vmultiprocessor 64-bit UltraSPARC
p1155
ss(Vimage
p1156
g1116
NVsparc64-smp
p1157
tp1158
(dp1159
Vconfigs
p1160
(lp1161
Vkernelarch-sparc/config-smp
p1162
ass(g164
g1116
g134
tp1163
(dp1164
g167
(lp1165
Vsparc64
p1166
aVsparc64-smp
p1167
asg171
I01
ss(Vbase
p1168
Vtilegx
p1169
tp1170
(dp1171
Vkernel-arch
p1172
Vtile
p1173
sVfeaturesets
p1174
(lp1175
ss(Vbase
p1176
Vx32
p1177
tp1178
(dp1179
Vkernel-arch
p1180
Vx86
p1181
sVfeaturesets
p1182
(lp1183
ss(Vabi
p1184
NVrt
p1185
tp1186
(dp1187
Vignore-changes
p1188
(lp1189
V*
p1190
ass(Vdescription
p1191
Ng1185
tp1192
(dp1193
Vpart-long-rt
p1194
VThis kernel includes the PREEMPT_RT realtime patch set.
p1195
sVpart-short-rt
p1196
VPREEMPT_RT
p1197
sVparts
p1198
(lp1199
Vrt
p1200
ass(Vversion
p1201
tp1202
(dp1203
Vsource
p1204
V4.9.65-3+deb9u2
p1205
sVupstream
p1206
V4.9
p1207
sVabiname_base
p1208
V4.9.0
p1209
sVabiname
p1210
V4.9.0-5
p1211
ss.