cdebian_linux.config
ConfigCore
p0
(tRp1
(Vabi
p2
tp3
(dp4
Vabiname
p5
V8
p6
sVignore-changes
p7
(lp8
V__cpuhp_*
p9
aVbpf_analyzer
p10
aVcxl_*
p11
aVinet_frag_*
p12
aVinet_frags_*
p13
aVmm_iommu_*
p14
aVmv_mbus_*
p15
aVregister_cxl_calls
p16
aVregister_key_type
p17
aVtpm_*
p18
aVtpmm_chip_alloc
p19
aVunregister_cxl_calls
p20
aVmodule:arch/x86/kvm/*
p21
aVmodule:drivers/crypto/ccp/*
p22
aVmodule:drivers/hv/*
p23
aVmodule:drivers/iio/common/hid-sensors/*
p24
aVmodule:drivers/iio/common/st_sensors/**
p25
aVmodule:drivers/net/wireless/**
p26
aVmodule:drivers/nvdimm/*
p27
aVmodule:drivers/nvme/**
p28
aVmodule:drivers/power/supply/bq27xxx_battery
p29
aVmodule:drivers/s390/net/qeth
p30
aVmodule:drivers/s390/net/qeth*
p31
aVmodule:drivers/scsi/cxgbi/*
p32
aVmodule:drivers/scsi/libiscs*
p33
aVmodule:drivers/scsi/qla2xxx/qla2xxx
p34
aVmodule:drivers/scsi/ufs/*
p35
aVmodule:drivers/target/**
p36
aVmodule:drivers/usb/chipidea/**
p37
aVmodule:drivers/usb/gadget/**
p38
aVmodule:drivers/usb/host/**
p39
aVmodule:drivers/usb/musb/**
p40
aVmodule:fs/nfs/nfs
p41
aVmodule:net/ceph/libceph
p42
aVmodule:net/l2tp/**
p43
aVmodule:sound/firewire/snd-firewire-lib
p44
aVbtree_*
p45
aVvisitor*
p46
aVcan_rx_register
p47
aVip6_xmit
p48
aVmodule:net/dccp/dccp
p49
aVmodule:net/rds/rds
p50
aVdevfreq_*
p51
aVdevm_devfreq_*
p52
aVupdate_devfreq
p53
aVmodule:drivers/infiniband/**
p54
aVacpi_ec_add_query_handler
p55
aVacpi_ec_remove_query_handler
p56
aVfirst_ec
p57
aVdebugfs_create_automount
p58
ass(Vbase
p59
tp60
(dp61
Varches
p62
(lp63
Valpha
p64
aVamd64
p65
aVarm64
p66
aVarmel
p67
aVarmhf
p68
aVhppa
p69
aVi386
p70
aVm68k
p71
aVmips
p72
aVmipsel
p73
aVmipsn32
p74
aVmipsn32el
p75
aVmips64
p76
aVmips64el
p77
aVpowerpc
p78
aVpowerpcspe
p79
aVppc64
p80
aVppc64el
p81
aVs390
p82
aVs390x
p83
aVsh3
p84
aVsh4
p85
aVsparc
p86
aVsparc64
p87
aVtilegx
p88
aVx32
p89
asVcompiler
p90
Vgcc-6
p91
sVfeaturesets
p92
(lp93
Vnone
p94
aVrt
p95
ass(Vbuild
p96
tp97
(dp98
Vdebug-info
p99
I01
sVsigned-modules
p100
I00
ss(Vbase
p101
NVrt
p102
tp103
(dp104
Venabled
p105
I01
ss(Vdescription
p106
tp107
(dp108
Vpart-long-up
p109
VThis kernel is not suitable for SMP (multi-processor,\u000amulti-core or hyper-threaded) systems.
p110
sVpart-long-xen
p111
VThis kernel also runs on a Xen hypervisor.\u000aIt supports both privileged (dom0) and unprivileged (domU) operation.
p112
ss(Vimage
p113
tp114
(dp115
Vinitramfs-generators
p116
(lp117
Vinitramfs-tools
p118
aVinitramfs-fallback
p119
ass(Vrelations
p120
tp121
(dp122
Vgcc-6
p123
Vgcc-6 <!stage1 !cross>, gcc-6-@gnu-type-package@ <!stage1 cross>
p124
sVinitramfs-fallback
p125
Vlinux-initramfs-tool
p126
sVinitramfs-tools
p127
Vinitramfs-tools (>= 0.120+deb8u2)
p128
ss(Vbase
p129
Valpha
p130
tp131
(dp132
Vkernel-arch
p133
Valpha
p134
sVfeaturesets
p135
(lp136
Vnone
p137
ass(Vbuild
p138
g130
tp139
(dp140
Vimage-file
p141
Varch/alpha/boot/vmlinux.gz
p142
sVsigned-modules
p143
I00
ss(Vimage
p144
g130
tp145
(dp146
Vsuggests
p147
Vaboot, fdutils
p148
sVinstall-stem
p149
Vvmlinuz
p150
ss(Vdescription
p151
g130
NValpha-generic
p152
tp153
(dp154
Vhardware
p155
VAlpha
p156
sVhardware-long
p157
VDEC Alpha systems with extended kernel start address (Wildfire, Titan, Marvel)
p158
ss(Vdescription
p159
g130
NValpha-smp
p160
tp161
(dp162
Vhardware
p163
VAlpha SMP
p164
sVhardware-long
p165
VDEC Alpha SMP systems with extended kernel start address (Wildfire, Titan, Marvel)
p166
ss(Vbase
p167
g130
g137
tp168
(dp169
Vflavours
p170
(lp171
Valpha-generic
p172
aValpha-smp
p173
asVimplicit-flavour
p174
I01
ss(Vbase
p175
Vamd64
p176
tp177
(dp178
Vfeaturesets
p179
(lp180
Vnone
p181
aVrt
p182
asVkernel-arch
p183
Vx86
p184
ss(Vbuild
p185
g176
tp186
(dp187
Vdebug-info
p188
I01
sVimage-file
p189
Varch/x86/boot/bzImage
p190
sVvdso
p191
I01
ss(Vimage
p192
g176
tp193
(dp194
Vbootloaders
p195
(lp196
Vgrub-pc
p197
aVgrub-efi-amd64
p198
aVextlinux
p199
asVinstall-stem
p200
Vvmlinuz
p201
sVbreaks
p202
Vxserver-xorg-input-vmmouse (<< 1:13.0.99)
p203
ss(Vrelations
p204
g176
tp205
(dp206
Vgcc-6
p207
Vgcc-6 (>= 6.3.0-18+deb9u1~) <!stage1 !cross>, gcc-6-@gnu-type-package@ (>= 6.3.0-18+deb9u1~) <!stage1 cross>
p208
sVheaders%gcc-6
p209
Vlinux-compiler-gcc-6-x86 (>= 4.9.82-1+deb9u1~)
p210
ss(Vdescription
p211
g176
NVamd64
p212
tp213
(dp214
Vhardware
p215
V64-bit PCs
p216
sVhardware-long
p217
VPCs with AMD64, Intel 64 or VIA Nano processors
p218
ss(Vbase
p219
g176
Vnone
p220
tp221
(dp222
Vflavours
p223
(lp224
Vamd64
p225
ass(Vdescription
p226
g176
g220
Vamd64
p227
tp228
(dp229
Vparts
p230
(lp231
Vxen
p232
ass(Vbase
p233
g176
Vrt
p234
tp235
(dp236
Vflavours
p237
(lp238
Vamd64
p239
ass(Vbase
p240
Varm64
p241
tp242
(dp243
Vkernel-arch
p244
Varm64
p245
sVfeaturesets
p246
(lp247
Vnone
p248
ass(Vbuild
p249
g241
tp250
(dp251
Vdebug-info
p252
I01
sVimage-file
p253
Varch/arm64/boot/Image
p254
sVvdso
p255
I01
ss(Vimage
p256
g241
tp257
(dp258
Vinstall-stem
p259
Vvmlinuz
p260
sVbreaks
p261
Vlibmozjs185-1.0, libmozjs-24-0 (<< 24.2.0-5.1~)
p262
ss(Vdescription
p263
g241
NVarm64
p264
tp265
(dp266
Vhardware
p267
V64-bit ARMv8 machines
p268
ss(Vimage
p269
g241
NVarm64
p270
tp271
(dp272
s(Vbase
p273
g241
Vnone
p274
tp275
(dp276
Vflavours
p277
(lp278
Varm64
p279
ass(Vbase
p280
Varmel
p281
tp282
(dp283
Vkernel-arch
p284
Varm
p285
sg135
(lp286
g137
ass(Vbuild
p287
g281
tp288
(dp289
Vimage-file
p290
Varch/arm/boot/zImage
p291
sVsigned-modules
p292
I00
ss(Vimage
p293
g281
tp294
(dp295
Vinstall-stem
p296
Vvmlinuz
p297
ss(Vrelations
p298
g281
tp299
(dp300
Vheaders%gcc-6
p301
Vlinux-compiler-gcc-6-arm
p302
ss(Vdescription
p303
g281
NVmarvell
p304
tp305
(dp306
Vhardware
p307
VMarvell Kirkwood/Orion
p308
sVhardware-long
p309
VMarvell Kirkwood based systems (SheevaPlug, QNAP TS-119/TS-219, etc)\u000aand Orion 5181, 5182 and 5281 based systems (QNAP TS-109/TS-209, etc)
p310
ss(Vimage
p311
g281
NVmarvell
p312
tp313
(dp314
Vrecommends
p315
Vu-boot-tools
p316
sVcheck-size
p317
L2097080L
sVcheck-size-with-dtb
p318
I01
sVbreaks
p319
Vflash-kernel (<< 3.57~)
p320
ss(g167
g281
g137
tp321
(dp322
g170
(lp323
Vmarvell
p324
asg174
I01
ss(Vbase
p325
Varmhf
p326
tp327
(dp328
Vkernel-arch
p329
Varm
p330
sg135
(lp331
g137
ass(Vbuild
p332
g326
tp333
(dp334
Vimage-file
p335
Varch/arm/boot/zImage
p336
sVvdso
p337
I01
ss(Vimage
p338
g326
tp339
(dp340
Vinstall-stem
p341
Vvmlinuz
p342
ss(Vrelations
p343
g326
tp344
(dp345
Vheaders%gcc-6
p346
Vlinux-compiler-gcc-6-arm
p347
ss(Vdescription
p348
g326
NVarmmp
p349
tp350
(dp351
Vhardware
p352
VARMv7 multiplatform compatible SoCs
p353
sVhardware-long
p354
VARMv7 multiplatform kernel. See\u000ahttps://wiki.debian.org/DebianKernel/ARMMP for details of supported\u000aplatforms
p355
ss(Vdescription
p356
g326
NVarmmp-lpae
p357
tp358
(dp359
Vhardware
p360
VARMv7 multiplatform compatible SoCs supporting LPAE
p361
sVhardware-long
p362
VARMv7 multiplatform kernel supporting LPAE. See\u000ahttps://wiki.debian.org/DebianKernel/ARMMP for details of supported\u000aplatforms.
p363
ss(g167
g326
g137
tp364
(dp365
g170
(lp366
Varmmp
p367
aVarmmp-lpae
p368
asg174
I01
ss(Vbase
p369
Vhppa
p370
tp371
(dp372
Vkernel-arch
p373
Vparisc
p374
sg135
(lp375
g137
ass(Vbuild
p376
g370
tp377
(dp378
Vimage-file
p379
Vvmlinux
p380
sVsigned-modules
p381
I00
ss(Vimage
p382
g370
tp383
(dp384
Vsuggests
p385
Vpalo
p386
sVinstall-stem
p387
Vvmlinux
p388
ss(Vdescription
p389
g370
NVparisc
p390
tp391
(dp392
Vhardware
p393
V32-bit PA-RISC
p394
sVhardware-long
p395
VHP PA-RISC 32-bit systems with max 4 GB RAM
p396
ss(Vbase
p397
g370
NVparisc64-smp
p398
tp399
(dp400
Vcflags
p401
V-fno-cse-follow-jumps
p402
sVoverride-host-type
p403
Vhppa64-linux-gnu
p404
ss(Vdescription
p405
g370
NVparisc64-smp
p406
tp407
(dp408
Vhardware
p409
Vmultiprocessor 64-bit PA-RISC
p410
sVhardware-long
p411
VHP PA-RISC 64-bit SMP systems with support for more than 4 GB RAM
p412
ss(Vrelations
p413
g370
tp414
(dp415
Vgcc-6
p416
Vgcc-6 <!stage1 !cross>, binutils-hppa64-linux-gnu <!stage1 !cross>, gcc-6-hppa64-linux-gnu <!stage1 !cross>, gcc-6-hppa-linux-gnu <!stage1 cross>, binutils-hppa64-linux-gnu <!stage1 cross>, gcc-6-hppa64-linux-gnu <!stage1 cross>
p417
ss(g167
g370
g137
tp418
(dp419
g170
(lp420
Vparisc
p421
aVparisc64-smp
p422
asg174
I01
ss(Vbase
p423
Vi386
p424
tp425
(dp426
Vfeaturesets
p427
(lp428
Vnone
p429
aVrt
p430
asVkernel-arch
p431
Vx86
p432
ss(Vbuild
p433
g424
tp434
(dp435
Vimage-file
p436
Varch/x86/boot/bzImage
p437
sVvdso
p438
I01
ss(Vdescription
p439
g424
tp440
(dp441
Vpart-long-pae
p442
VThis kernel requires PAE (Physical Address Extension).\u000aThis feature is supported by the Intel Pentium Pro/II/III/4/4M/D, Xeon,\u000aCore and Atom; AMD Geode NX, Athlon (K7), Duron, Opteron, Sempron,\u000aTurion or Phenom; Transmeta Efficeon; VIA C7; and some other processors.
p443
ss(Vimage
p444
g424
tp445
(dp446
Vbootloaders
p447
(lp448
Vgrub-pc
p449
aVextlinux
p450
asVinstall-stem
p451
Vvmlinuz
p452
sVbreaks
p453
Vxserver-xorg-input-vmmouse (<< 1:13.0.99)
p454
ss(Vrelations
p455
g424
tp456
(dp457
Vgcc-6
p458
Vgcc-6 (>= 6.3.0-18+deb9u1~) <!stage1 !cross>, gcc-6-@gnu-type-package@ (>= 6.3.0-18+deb9u1~) <!stage1 cross>
p459
sVheaders%gcc-6
p460
Vlinux-compiler-gcc-6-x86 (>= 4.9.82-1+deb9u1~)
p461
ss(Vdescription
p462
g424
NV686
p463
tp464
(dp465
Vhardware
p466
Volder PCs
p467
sVhardware-long
p468
VPCs with one or more processors not supporting PAE
p469
ss(Vbuild
p470
g424
NV686-pae
p471
tp472
(dp473
Vdebug-info
p474
I01
ss(Vdescription
p475
g424
NV686-pae
p476
tp477
(dp478
Vhardware
p479
Vmodern PCs
p480
sVhardware-long
p481
VPCs with one or more processors supporting PAE
p482
sVparts
p483
(lp484
Vpae
p485
ass(Vbase
p486
g424
Vnone
p487
tp488
(dp489
Vflavours
p490
(lp491
V686
p492
aV686-pae
p493
ass(Vdescription
p494
g424
g487
V686-pae
p495
tp496
(dp497
Vparts
p498
(lp499
Vxen
p500
ass(Vbase
p501
g424
Vrt
p502
tp503
(dp504
Vflavours
p505
(lp506
V686-pae
p507
ass(Vbase
p508
Vm68k
p509
tp510
(dp511
Vcflags
p512
V-ffreestanding
p513
sVkernel-arch
p514
Vm68k
p515
sg135
(lp516
g137
ass(Vbuild
p517
g509
tp518
(dp519
Vimage-file
p520
Vvmlinux.gz
p521
sVsigned-modules
p522
I00
ss(Vimage
p523
g509
tp524
(dp525
Vsuggests
p526
Vvmelilo, fdutils
p527
sVinstall-stem
p528
Vvmlinuz
p529
ss(Vdescription
p530
g509
NVm68k
p531
tp532
(dp533
Vhardware
p534
VMotorola MC68020+ family
p535
ss(g167
g509
g137
tp536
(dp537
g170
(lp538
Vm68k
p539
asg174
I01
ss(Vbase
p540
Vmips
p541
tp542
(dp543
Vkernel-arch
p544
Vmips
p545
sg135
(lp546
g137
ass(Vbuild
p547
g541
tp548
(dp549
Vimage-file
p550
Vvmlinux
p551
sVsigned-modules
p552
I00
ss(Vimage
p553
g541
tp554
(dp555
Vinstall-stem
p556
Vvmlinux
p557
ss(Vdescription
p558
g541
NV4kc-malta
p559
tp560
(dp561
Vhardware
p562
VMIPS Malta
p563
sVhardware-long
p564
VMIPS Malta boards
p565
ss(Vimage
p566
g541
NV4kc-malta
p567
tp568
(dp569
Vconfigs
p570
(lp571
Vkernelarch-mips/config.malta
p572
aVkernelarch-mips/config.mips32r2
p573
ass(Vdescription
p574
g541
NV5kc-malta
p575
tp576
(dp577
Vhardware
p578
VMIPS Malta (64-bit)
p579
sVhardware-long
p580
VMIPS Malta boards (64-bit)
p581
ss(Vimage
p582
g541
NV5kc-malta
p583
tp584
(dp585
Vconfigs
p586
(lp587
Vkernelarch-mips/config.malta
p588
aVkernelarch-mips/config.mips64r2
p589
ass(Vdescription
p590
g541
NVocteon
p591
tp592
(dp593
Vhardware
p594
VOcteon
p595
sVhardware-long
p596
VCavium Networks Octeon
p597
ss(Vimage
p598
g541
NVocteon
p599
tp600
(dp601
Vconfigs
p602
(lp603
Vkernelarch-mips/config.octeon
p604
ass(g167
g541
g137
tp605
(dp606
g170
(lp607
V4kc-malta
p608
aV5kc-malta
p609
aVocteon
p610
asg174
I01
ss(Vbase
p611
Vmipsel
p612
tp613
(dp614
Vkernel-arch
p615
Vmips
p616
sg135
(lp617
g137
ass(Vbuild
p618
g612
tp619
(dp620
Vimage-file
p621
Vvmlinux
p622
sVsigned-modules
p623
I00
ss(Vimage
p624
g612
tp625
(dp626
Vinstall-stem
p627
Vvmlinux
p628
ss(Vdescription
p629
g612
NV4kc-malta
p630
tp631
(dp632
Vhardware
p633
VMIPS Malta
p634
sVhardware-long
p635
VMIPS Malta boards
p636
ss(Vimage
p637
g612
NV4kc-malta
p638
tp639
(dp640
Vconfigs
p641
(lp642
Vkernelarch-mips/config.malta
p643
aVkernelarch-mips/config.mips32r2
p644
ass(Vdescription
p645
g612
NV5kc-malta
p646
tp647
(dp648
Vhardware
p649
VMIPS Malta (64-bit)
p650
sVhardware-long
p651
VMIPS Malta boards (64-bit)
p652
ss(Vimage
p653
g612
NV5kc-malta
p654
tp655
(dp656
Vconfigs
p657
(lp658
Vkernelarch-mips/config.malta
p659
aVkernelarch-mips/config.mips64r2
p660
ass(Vdescription
p661
g612
NVloongson-3
p662
tp663
(dp664
Vhardware
p665
VLoongson 3A/3B
p666
sVhardware-long
p667
VLoongson 3A or 3B based systems (e.g. from Loongson or Lemote)
p668
ss(Vimage
p669
g612
NVloongson-3
p670
tp671
(dp672
Vconfigs
p673
(lp674
Vkernelarch-mips/config.loongson-3
p675
ass(Vdescription
p676
g612
NVocteon
p677
tp678
(dp679
Vhardware
p680
VOcteon
p681
sVhardware-long
p682
VCavium Networks Octeon
p683
ss(Vimage
p684
g612
NVocteon
p685
tp686
(dp687
Vconfigs
p688
(lp689
Vkernelarch-mips/config.octeon
p690
ass(g167
g612
g137
tp691
(dp692
g170
(lp693
V4kc-malta
p694
aV5kc-malta
p695
aVloongson-3
p696
aVocteon
p697
asg174
I01
ss(Vbase
p698
Vmipsn32
p699
tp700
(dp701
Vkernel-arch
p702
Vmips
p703
sVfeaturesets
p704
(lp705
ss(Vbase
p706
Vmipsn32el
p707
tp708
(dp709
Vkernel-arch
p710
Vmips
p711
sVfeaturesets
p712
(lp713
ss(Vbase
p714
Vmips64
p715
tp716
(dp717
Vkernel-arch
p718
Vmips
p719
sg135
(lp720
g137
ass(Vbuild
p721
g715
tp722
(dp723
Vimage-file
p724
Vvmlinux
p725
sVsigned-modules
p726
I00
ss(Vimage
p727
g715
tp728
(dp729
Vinstall-stem
p730
Vvmlinux
p731
ss(Vdescription
p732
g715
NV5kc-malta
p733
tp734
(dp735
Vhardware
p736
VMIPS Malta
p737
sVhardware-long
p738
VMIPS Malta boards
p739
ss(Vimage
p740
g715
NV5kc-malta
p741
tp742
(dp743
Vconfigs
p744
(lp745
Vkernelarch-mips/config.malta
p746
aVkernelarch-mips/config.mips64r2
p747
ass(Vdescription
p748
g715
NVocteon
p749
tp750
(dp751
Vhardware
p752
VOcteon
p753
sVhardware-long
p754
VCavium Networks Octeon
p755
ss(Vimage
p756
g715
NVocteon
p757
tp758
(dp759
Vconfigs
p760
(lp761
Vkernelarch-mips/config.octeon
p762
ass(g167
g715
g137
tp763
(dp764
g170
(lp765
V5kc-malta
p766
aVocteon
p767
asg174
I01
ss(Vbase
p768
Vmips64el
p769
tp770
(dp771
Vkernel-arch
p772
Vmips
p773
sg135
(lp774
g137
ass(Vbuild
p775
g769
tp776
(dp777
Vimage-file
p778
Vvmlinux
p779
sVsigned-modules
p780
I00
ss(Vimage
p781
g769
tp782
(dp783
Vinstall-stem
p784
Vvmlinux
p785
ss(Vdescription
p786
g769
NV5kc-malta
p787
tp788
(dp789
Vhardware
p790
VMIPS Malta
p791
sVhardware-long
p792
VMIPS Malta boards
p793
ss(Vimage
p794
g769
NV5kc-malta
p795
tp796
(dp797
Vconfigs
p798
(lp799
Vkernelarch-mips/config.malta
p800
aVkernelarch-mips/config.mips64r2
p801
ass(Vdescription
p802
g769
NVloongson-3
p803
tp804
(dp805
Vhardware
p806
VLoongson 3A/3B
p807
sVhardware-long
p808
VLoongson 3A or 3B based systems (e.g. from Loongson or Lemote)
p809
ss(Vimage
p810
g769
NVloongson-3
p811
tp812
(dp813
Vconfigs
p814
(lp815
Vkernelarch-mips/config.loongson-3
p816
ass(Vdescription
p817
g769
NVocteon
p818
tp819
(dp820
Vhardware
p821
VOcteon
p822
sVhardware-long
p823
VCavium Networks Octeon
p824
ss(Vimage
p825
g769
NVocteon
p826
tp827
(dp828
Vconfigs
p829
(lp830
Vkernelarch-mips/config.octeon
p831
ass(g167
g769
g137
tp832
(dp833
g170
(lp834
V5kc-malta
p835
aVloongson-3
p836
aVocteon
p837
asg174
I01
ss(Vbase
p838
Vpowerpc
p839
tp840
(dp841
Vkernel-arch
p842
Vpowerpc
p843
sg135
(lp844
g137
ass(Vbuild
p845
g839
tp846
(dp847
Vimage-file
p848
Vvmlinux
p849
sVvdso
p850
I01
ss(Vimage
p851
g839
tp852
(dp853
Vconfigs
p854
(lp855
sVsuggests
p856
Vmkvmlinuz
p857
sVinstall-stem
p858
Vvmlinux
p859
ss(Vdescription
p860
g839
NVpowerpc
p861
tp862
(dp863
Vhardware
p864
Vuniprocessor 32-bit PowerPC
p865
ss(Vdescription
p866
g839
NVpowerpc-smp
p867
tp868
(dp869
Vhardware
p870
Vmultiprocessor 32-bit PowerPC
p871
ss(Vimage
p872
g839
NVpowerpc-smp
p873
tp874
(dp875
Vconfigs
p876
(lp877
Vpowerpc/config.powerpc
p878
aVpowerpc/config.powerpc-smp
p879
ass(Vdescription
p880
g839
NVpowerpc64
p881
tp882
(dp883
Vhardware
p884
V64-bit PowerPC
p885
ss(Vimage
p886
g839
NVpowerpc64
p887
tp888
(dp889
Vconfigs
p890
(lp891
Vkernelarch-powerpc/config-arch-64
p892
aVkernelarch-powerpc/config-arch-64-be
p893
ass(g167
g839
g137
tp894
(dp895
g170
(lp896
Vpowerpc
p897
aVpowerpc-smp
p898
aVpowerpc64
p899
asg174
I01
ss(Vbase
p900
Vpowerpcspe
p901
tp902
(dp903
Vkernel-arch
p904
Vpowerpc
p905
sg135
(lp906
g137
ass(Vbuild
p907
g901
tp908
(dp909
Vimage-file
p910
Vvmlinux
p911
sVsigned-modules
p912
I00
sVvdso
p913
I01
ss(Vimage
p914
g901
tp915
(dp916
Vsuggests
p917
Vmkvmlinuz
p918
sVinstall-stem
p919
Vvmlinux
p920
ss(Vdescription
p921
g901
tp922
(dp923
Vhardware
p924
V32-bit PowerPC with SPE (instead of AltiVec) with SMP support
p925
ss(g167
g901
g137
tp926
(dp927
g170
(lp928
Vpowerpcspe
p929
asg174
I01
ss(Vbase
p930
Vppc64
p931
tp932
(dp933
Vkernel-arch
p934
Vpowerpc
p935
sg135
(lp936
g137
ass(Vbuild
p937
g931
tp938
(dp939
Vimage-file
p940
Vvmlinux
p941
sVsigned-modules
p942
I00
sVvdso
p943
I01
ss(Vimage
p944
g931
tp945
(dp946
Vconfigs
p947
(lp948
sVsuggests
p949
Vmkvmlinuz
p950
sVinstall-stem
p951
Vvmlinux
p952
ss(Vdescription
p953
g931
NVpowerpc64
p954
tp955
(dp956
Vhardware
p957
V64-bit PowerPC
p958
ss(Vimage
p959
g931
NVpowerpc64
p960
tp961
(dp962
Vconfigs
p963
(lp964
Vkernelarch-powerpc/config-arch-64
p965
aVkernelarch-powerpc/config-arch-64-be
p966
ass(g167
g931
g137
tp967
(dp968
g170
(lp969
Vpowerpc64
p970
asg174
I01
ss(Vbase
p971
Vppc64el
p972
tp973
(dp974
Vkernel-arch
p975
Vpowerpc
p976
sg135
(lp977
g137
ass(Vbuild
p978
g972
tp979
(dp980
Vimage-file
p981
Vvmlinux
p982
sVvdso
p983
I01
ss(Vimage
p984
g972
tp985
(dp986
Vconfigs
p987
(lp988
sVsuggests
p989
Vmkvmlinuz
p990
sVinstall-stem
p991
Vvmlinux
p992
ss(Vdescription
p993
g972
NVpowerpc64le
p994
tp995
(dp996
Vhardware
p997
VLittle-endian 64-bit PowerPC
p998
ss(Vimage
p999
g972
NVpowerpc64le
p1000
tp1001
(dp1002
Vconfigs
p1003
(lp1004
Vkernelarch-powerpc/config-arch-64
p1005
aVkernelarch-powerpc/config-arch-64-le
p1006
ass(g167
g972
g137
tp1007
(dp1008
g170
(lp1009
Vpowerpc64le
p1010
asg174
I01
ss(Vbase
p1011
Vs390
p1012
tp1013
(dp1014
Vkernel-arch
p1015
Vs390
p1016
sVfeaturesets
p1017
(lp1018
ss(Vbase
p1019
Vs390x
p1020
tp1021
(dp1022
Vkernel-arch
p1023
Vs390
p1024
sg135
(lp1025
g137
ass(Vbuild
p1026
g1020
tp1027
(dp1028
Vimage-file
p1029
Varch/s390/boot/image
p1030
sVvdso
p1031
I01
ss(Vimage
p1032
g1020
tp1033
(dp1034
Vbootloaders
p1035
(lp1036
Vs390-tools
p1037
asVinstall-stem
p1038
Vvmlinuz
p1039
ss(Vrelations
p1040
g1020
tp1041
(dp1042
Vheaders%gcc-6
p1043
Vlinux-compiler-gcc-6-s390
p1044
ss(Vbuild
p1045
g1020
NVs390x
p1046
tp1047
(dp1048
Vdebug-info
p1049
I01
ss(Vdescription
p1050
g1020
NVs390x
p1051
tp1052
(dp1053
Vhardware
p1054
VIBM zSeries
p1055
ss(g167
g1020
g137
tp1056
(dp1057
g170
(lp1058
Vs390x
p1059
asg174
I01
ss(Vbase
p1060
Vsh3
p1061
tp1062
(dp1063
Vkernel-arch
p1064
Vsh
p1065
sVfeaturesets
p1066
(lp1067
ss(Vbase
p1068
Vsh4
p1069
tp1070
(dp1071
Vkernel-arch
p1072
Vsh
p1073
sg135
(lp1074
g137
ass(Vbuild
p1075
g1069
tp1076
(dp1077
Vimage-file
p1078
Varch/sh/boot/zImage
p1079
sVsigned-modules
p1080
I00
ss(Vimage
p1081
g1069
tp1082
(dp1083
Vinstall-stem
p1084
Vvmlinuz
p1085
ss(Vdescription
p1086
g1069
NVsh7751r
p1087
tp1088
(dp1089
Vhardware
p1090
Vsh7751r
p1091
sVhardware-long
p1092
VRenesas SH7751R R2D plus board
p1093
ss(Vdescription
p1094
g1069
NVsh7785lcr
p1095
tp1096
(dp1097
Vhardware
p1098
Vsh7785lcr
p1099
sVhardware-long
p1100
VRenesas SH7785 reference board
p1101
ss(Vimage
p1102
g1069
NVsh7785lcr
p1103
tp1104
(dp1105
Vrecommends
p1106
Vu-boot-tools
p1107
sVcheck-size
p1108
L4194304L
ss(g167
g1069
g137
tp1109
(dp1110
g170
(lp1111
Vsh7751r
p1112
aVsh7785lcr
p1113
asg174
I01
ss(Vbase
p1114
Vsparc
p1115
tp1116
(dp1117
Vkernel-arch
p1118
Vsparc
p1119
sVfeaturesets
p1120
(lp1121
ss(Vbase
p1122
Vsparc64
p1123
tp1124
(dp1125
Vkernel-arch
p1126
Vsparc
p1127
sg135
(lp1128
g137
ass(Vbuild
p1129
g1123
tp1130
(dp1131
Vimage-file
p1132
Varch/sparc/boot/zImage
p1133
sVsigned-modules
p1134
I00
ss(Vimage
p1135
g1123
tp1136
(dp1137
Vconfigs
p1138
(lp1139
sVsuggests
p1140
Vsilo, fdutils
p1141
sVinstall-stem
p1142
Vvmlinuz
p1143
ss(Vdescription
p1144
g1123
NVsparc64
p1145
tp1146
(dp1147
Vhardware
p1148
Vuniprocessor 64-bit UltraSPARC
p1149
ss(Vimage
p1150
g1123
NVsparc64
p1151
tp1152
(dp1153
Vconfigs
p1154
(lp1155
Vkernelarch-sparc/config-up
p1156
ass(Vdescription
p1157
g1123
NVsparc64-smp
p1158
tp1159
(dp1160
Vhardware
p1161
Vmultiprocessor 64-bit UltraSPARC
p1162
ss(Vimage
p1163
g1123
NVsparc64-smp
p1164
tp1165
(dp1166
Vconfigs
p1167
(lp1168
Vkernelarch-sparc/config-smp
p1169
ass(g167
g1123
g137
tp1170
(dp1171
g170
(lp1172
Vsparc64
p1173
aVsparc64-smp
p1174
asg174
I01
ss(Vbase
p1175
Vtilegx
p1176
tp1177
(dp1178
Vkernel-arch
p1179
Vtile
p1180
sVfeaturesets
p1181
(lp1182
ss(Vbase
p1183
Vx32
p1184
tp1185
(dp1186
Vkernel-arch
p1187
Vx86
p1188
sVfeaturesets
p1189
(lp1190
ss(Vabi
p1191
NVrt
p1192
tp1193
(dp1194
Vignore-changes
p1195
(lp1196
V*
p1197
ass(Vdescription
p1198
Ng1192
tp1199
(dp1200
Vpart-long-rt
p1201
VThis kernel includes the PREEMPT_RT realtime patch set.
p1202
sVpart-short-rt
p1203
VPREEMPT_RT
p1204
sVparts
p1205
(lp1206
Vrt
p1207
ass(Vversion
p1208
tp1209
(dp1210
Vsource
p1211
V4.9.110-3+deb9u6
p1212
sVupstream
p1213
V4.9
p1214
sVabiname_base
p1215
V4.9.0
p1216
sVabiname
p1217
V4.9.0-8
p1218
ss.