cdebian_linux.config
ConfigCore
p0
(tRp1
(Vbase
p2
tp3
(dp4
Varches
p5
(lp6
Valpha
p7
aVamd64
p8
aVarm64
p9
aVarmel
p10
aVarmhf
p11
aVhppa
p12
aVi386
p13
aVm68k
p14
aVmips
p15
aVmipsel
p16
aVmipsn32
p17
aVmipsn32el
p18
aVmips64
p19
aVmips64el
p20
aVpowerpc
p21
aVpowerpcspe
p22
aVppc64
p23
aVppc64el
p24
aVs390
p25
aVs390x
p26
aVsh3
p27
aVsh4
p28
aVsparc
p29
aVsparc64
p30
aVtilegx
p31
aVx32
p32
asVfeaturesets
p33
(lp34
Vnone
p35
aVrt
p36
asVcompiler
p37
Vgcc-6
p38
ss(Vbuild
p39
tp40
(dp41
Vsigned-modules
p42
I00
sVdebug-info
p43
I01
ss(Vbase
p44
NVrt
p45
tp46
(dp47
Venabled
p48
I01
ss(Vdescription
p49
tp50
(dp51
Vpart-long-up
p52
VThis kernel is not suitable for SMP (multi-processor,\u000amulti-core or hyper-threaded) systems.
p53
sVpart-long-xen
p54
VThis kernel also runs on a Xen hypervisor.\u000aIt supports both privileged (dom0) and unprivileged (domU) operation.
p55
ss(Vrelations
p56
tp57
(dp58
Vinitramfs-tools
p59
Vinitramfs-tools (>= 0.120+deb8u2)
p60
sVgcc-6
p61
Vgcc-6 <!stage1 !cross>, gcc-6-@gnu-type-package@ <!stage1 cross>
p62
sVinitramfs-fallback
p63
Vlinux-initramfs-tool
p64
ss(Vimage
p65
tp66
(dp67
Vinitramfs-generators
p68
(lp69
Vinitramfs-tools
p70
aVinitramfs-fallback
p71
ass(Vabi
p72
tp73
(dp74
Vabiname
p75
V6
p76
sVignore-changes
p77
(lp78
V__cpuhp_*
p79
aVbpf_analyzer
p80
aVcxl_*
p81
aVinet_frag_*
p82
aVinet_frags_*
p83
aVmm_iommu_*
p84
aVmv_mbus_*
p85
aVpaca
p86
aVregister_cxl_calls
p87
aVregister_key_type
p88
aVunregister_cxl_calls
p89
aVmodule:arch/x86/kvm/*
p90
aVmodule:drivers/crypto/ccp/*
p91
aVmodule:drivers/hv/*
p92
aVmodule:drivers/iio/common/hid-sensors/*
p93
aVmodule:drivers/iio/common/st_sensors/**
p94
aVmodule:drivers/net/wireless/**
p95
aVmodule:drivers/nvdimm/*
p96
aVmodule:drivers/power/supply/bq27xxx_battery
p97
aVmodule:drivers/s390/net/qeth
p98
aVmodule:drivers/s390/net/qeth*
p99
aVmodule:drivers/scsi/cxgbi/*
p100
aVmodule:drivers/scsi/libiscs*
p101
aVmodule:drivers/scsi/qla2xxx/qla2xxx
p102
aVmodule:drivers/scsi/ufs/*
p103
aVmodule:drivers/target/**
p104
aVmodule:drivers/usb/chipidea/**
p105
aVmodule:drivers/usb/gadget/**
p106
aVmodule:drivers/usb/host/**
p107
aVmodule:drivers/usb/musb/**
p108
aVmodule:fs/nfs/nfs
p109
aVmodule:net/ceph/libceph
p110
aVmodule:net/l2tp/**
p111
aVmodule:sound/firewire/snd-firewire-lib
p112
aVbtree_*
p113
aVvisitor*
p114
aVcan_rx_register
p115
aVip6_xmit
p116
aVmodule:net/dccp/dccp
p117
aVmodule:net/rds/rds
p118
aVdevfreq_*
p119
aVdevm_devfreq_*
p120
aVupdate_devfreq
p121
aVmodule:drivers/infiniband/**
p122
aVacpi_ec_add_query_handler
p123
aVacpi_ec_remove_query_handler
p124
aVfirst_ec
p125
aVdebugfs_create_automount
p126
ass(Vbase
p127
Valpha
p128
tp129
(dp130
Vfeaturesets
p131
(lp132
Vnone
p133
asVkernel-arch
p134
Valpha
p135
ss(Vdescription
p136
g128
NValpha-smp
p137
tp138
(dp139
Vhardware
p140
VAlpha SMP
p141
sVhardware-long
p142
VDEC Alpha SMP systems with extended kernel start address (Wildfire, Titan, Marvel)
p143
ss(Vbuild
p144
g128
tp145
(dp146
Vsigned-modules
p147
I00
sVimage-file
p148
Varch/alpha/boot/vmlinux.gz
p149
ss(Vdescription
p150
g128
NValpha-generic
p151
tp152
(dp153
Vhardware
p154
VAlpha
p155
sVhardware-long
p156
VDEC Alpha systems with extended kernel start address (Wildfire, Titan, Marvel)
p157
ss(Vimage
p158
g128
tp159
(dp160
Vsuggests
p161
Vaboot, fdutils
p162
sVinstall-stem
p163
Vvmlinuz
p164
ss(Vbase
p165
g128
g133
tp166
(dp167
Vflavours
p168
(lp169
Valpha-generic
p170
aValpha-smp
p171
asVimplicit-flavour
p172
I01
ss(Vbase
p173
Vamd64
p174
tp175
(dp176
Vfeaturesets
p177
(lp178
Vnone
p179
aVrt
p180
asVkernel-arch
p181
Vx86
p182
ss(Vdescription
p183
g174
NVamd64
p184
tp185
(dp186
Vhardware
p187
V64-bit PCs
p188
sVhardware-long
p189
VPCs with AMD64, Intel 64 or VIA Nano processors
p190
ss(Vbuild
p191
g174
tp192
(dp193
Vvdso
p194
I01
sVimage-file
p195
Varch/x86/boot/bzImage
p196
sVdebug-info
p197
I01
ss(Vrelations
p198
g174
tp199
(dp200
Vheaders%gcc-6
p201
Vlinux-compiler-gcc-6-x86 (>= 4.9.82-1+deb9u1~)
p202
sVgcc-6
p203
Vgcc-6 (>= 6.3.0-18+deb9u1~) <!stage1 !cross>, gcc-6-@gnu-type-package@ (>= 6.3.0-18+deb9u1~) <!stage1 cross>
p204
ss(Vimage
p205
g174
tp206
(dp207
Vbreaks
p208
Vxserver-xorg-input-vmmouse (<< 1:13.0.99)
p209
sVinstall-stem
p210
Vvmlinuz
p211
sVbootloaders
p212
(lp213
Vgrub-pc
p214
aVgrub-efi-amd64
p215
aVextlinux
p216
ass(Vbase
p217
g174
Vnone
p218
tp219
(dp220
Vflavours
p221
(lp222
Vamd64
p223
ass(Vdescription
p224
g174
g218
Vamd64
p225
tp226
(dp227
Vparts
p228
(lp229
Vxen
p230
ass(Vbase
p231
g174
Vrt
p232
tp233
(dp234
Vflavours
p235
(lp236
Vamd64
p237
ass(Vbase
p238
Varm64
p239
tp240
(dp241
Vfeaturesets
p242
(lp243
Vnone
p244
asVkernel-arch
p245
Varm64
p246
ss(Vdescription
p247
g239
NVarm64
p248
tp249
(dp250
Vhardware
p251
V64-bit ARMv8 machines
p252
ss(Vbuild
p253
g239
tp254
(dp255
Vvdso
p256
I01
sVimage-file
p257
Varch/arm64/boot/Image
p258
sVdebug-info
p259
I01
ss(Vimage
p260
g239
NVarm64
p261
tp262
(dp263
s(Vimage
p264
g239
tp265
(dp266
Vbreaks
p267
Vlibmozjs185-1.0, libmozjs-24-0 (<< 24.2.0-5.1~)
p268
sVinstall-stem
p269
Vvmlinuz
p270
ss(Vbase
p271
g239
Vnone
p272
tp273
(dp274
Vflavours
p275
(lp276
Varm64
p277
ass(Vbase
p278
Varmel
p279
tp280
(dp281
g131
(lp282
g133
asVkernel-arch
p283
Varm
p284
ss(Vbuild
p285
g279
tp286
(dp287
Vsigned-modules
p288
I00
sVimage-file
p289
Varch/arm/boot/zImage
p290
ss(Vimage
p291
g279
NVmarvell
p292
tp293
(dp294
Vrecommends
p295
Vu-boot-tools
p296
sVbreaks
p297
Vflash-kernel (<< 3.57~)
p298
sVcheck-size-with-dtb
p299
I01
sVcheck-size
p300
L2097080L
ss(Vdescription
p301
g279
NVmarvell
p302
tp303
(dp304
Vhardware
p305
VMarvell Kirkwood/Orion
p306
sVhardware-long
p307
VMarvell Kirkwood based systems (SheevaPlug, QNAP TS-119/TS-219, etc)\u000aand Orion 5181, 5182 and 5281 based systems (QNAP TS-109/TS-209, etc)
p308
ss(Vrelations
p309
g279
tp310
(dp311
Vheaders%gcc-6
p312
Vlinux-compiler-gcc-6-arm
p313
ss(Vimage
p314
g279
tp315
(dp316
Vinstall-stem
p317
Vvmlinuz
p318
ss(g165
g279
g133
tp319
(dp320
g168
(lp321
Vmarvell
p322
asg172
I01
ss(Vbase
p323
Varmhf
p324
tp325
(dp326
g131
(lp327
g133
asVkernel-arch
p328
Varm
p329
ss(Vdescription
p330
g324
NVarmmp
p331
tp332
(dp333
Vhardware
p334
VARMv7 multiplatform compatible SoCs
p335
sVhardware-long
p336
VARMv7 multiplatform kernel. See\u000ahttps://wiki.debian.org/DebianKernel/ARMMP for details of supported\u000aplatforms
p337
ss(Vbuild
p338
g324
tp339
(dp340
Vvdso
p341
I01
sVimage-file
p342
Varch/arm/boot/zImage
p343
ss(Vdescription
p344
g324
NVarmmp-lpae
p345
tp346
(dp347
Vhardware
p348
VARMv7 multiplatform compatible SoCs supporting LPAE
p349
sVhardware-long
p350
VARMv7 multiplatform kernel supporting LPAE. See\u000ahttps://wiki.debian.org/DebianKernel/ARMMP for details of supported\u000aplatforms.
p351
ss(Vrelations
p352
g324
tp353
(dp354
Vheaders%gcc-6
p355
Vlinux-compiler-gcc-6-arm
p356
ss(Vimage
p357
g324
tp358
(dp359
Vinstall-stem
p360
Vvmlinuz
p361
ss(g165
g324
g133
tp362
(dp363
g168
(lp364
Varmmp
p365
aVarmmp-lpae
p366
asg172
I01
ss(Vbase
p367
Vhppa
p368
tp369
(dp370
g131
(lp371
g133
asVkernel-arch
p372
Vparisc
p373
ss(Vbuild
p374
g368
tp375
(dp376
Vsigned-modules
p377
I00
sVimage-file
p378
Vvmlinux
p379
ss(Vdescription
p380
g368
NVparisc64-smp
p381
tp382
(dp383
Vhardware
p384
Vmultiprocessor 64-bit PA-RISC
p385
sVhardware-long
p386
VHP PA-RISC 64-bit SMP systems with support for more than 4 GB RAM
p387
ss(Vbase
p388
g368
NVparisc64-smp
p389
tp390
(dp391
Vcflags
p392
V-fno-cse-follow-jumps
p393
sVoverride-host-type
p394
Vhppa64-linux-gnu
p395
ss(Vrelations
p396
g368
tp397
(dp398
Vgcc-6
p399
Vgcc-6 <!stage1 !cross>, binutils-hppa64-linux-gnu <!stage1 !cross>, gcc-6-hppa64-linux-gnu <!stage1 !cross>, gcc-6-hppa-linux-gnu <!stage1 cross>, binutils-hppa64-linux-gnu <!stage1 cross>, gcc-6-hppa64-linux-gnu <!stage1 cross>
p400
ss(Vdescription
p401
g368
NVparisc
p402
tp403
(dp404
Vhardware
p405
V32-bit PA-RISC
p406
sVhardware-long
p407
VHP PA-RISC 32-bit systems with max 4 GB RAM
p408
ss(Vimage
p409
g368
tp410
(dp411
Vsuggests
p412
Vpalo
p413
sVinstall-stem
p414
Vvmlinux
p415
ss(g165
g368
g133
tp416
(dp417
g168
(lp418
Vparisc
p419
aVparisc64-smp
p420
asg172
I01
ss(Vbase
p421
Vi386
p422
tp423
(dp424
Vfeaturesets
p425
(lp426
Vnone
p427
aVrt
p428
asVkernel-arch
p429
Vx86
p430
ss(Vbuild
p431
g422
tp432
(dp433
Vvdso
p434
I01
sVimage-file
p435
Varch/x86/boot/bzImage
p436
ss(Vdescription
p437
g422
NV686-pae
p438
tp439
(dp440
Vhardware
p441
Vmodern PCs
p442
sVhardware-long
p443
VPCs with one or more processors supporting PAE
p444
sVparts
p445
(lp446
Vpae
p447
ass(Vdescription
p448
g422
tp449
(dp450
Vpart-long-pae
p451
VThis kernel requires PAE (Physical Address Extension).\u000aThis feature is supported by the Intel Pentium Pro/II/III/4/4M/D, Xeon,\u000aCore and Atom; AMD Geode NX, Athlon (K7), Duron, Opteron, Sempron,\u000aTurion or Phenom; Transmeta Efficeon; VIA C7; and some other processors.
p452
ss(Vbuild
p453
g422
NV686-pae
p454
tp455
(dp456
Vdebug-info
p457
I01
ss(Vdescription
p458
g422
NV686
p459
tp460
(dp461
Vhardware
p462
Volder PCs
p463
sVhardware-long
p464
VPCs with one or more processors not supporting PAE
p465
ss(Vrelations
p466
g422
tp467
(dp468
Vheaders%gcc-6
p469
Vlinux-compiler-gcc-6-x86 (>= 4.9.82-1+deb9u1~)
p470
sVgcc-6
p471
Vgcc-6 (>= 6.3.0-18+deb9u1~) <!stage1 !cross>, gcc-6-@gnu-type-package@ (>= 6.3.0-18+deb9u1~) <!stage1 cross>
p472
ss(Vimage
p473
g422
tp474
(dp475
Vbreaks
p476
Vxserver-xorg-input-vmmouse (<< 1:13.0.99)
p477
sVinstall-stem
p478
Vvmlinuz
p479
sVbootloaders
p480
(lp481
Vgrub-pc
p482
aVextlinux
p483
ass(Vbase
p484
g422
Vnone
p485
tp486
(dp487
Vflavours
p488
(lp489
V686
p490
aV686-pae
p491
ass(Vdescription
p492
g422
g485
V686-pae
p493
tp494
(dp495
Vparts
p496
(lp497
Vxen
p498
ass(Vbase
p499
g422
Vrt
p500
tp501
(dp502
Vflavours
p503
(lp504
V686-pae
p505
ass(Vbase
p506
Vm68k
p507
tp508
(dp509
Vcflags
p510
V-ffreestanding
p511
sg131
(lp512
g133
asVkernel-arch
p513
Vm68k
p514
ss(Vbuild
p515
g507
tp516
(dp517
Vsigned-modules
p518
I00
sVimage-file
p519
Vvmlinux.gz
p520
ss(Vdescription
p521
g507
NVm68k
p522
tp523
(dp524
Vhardware
p525
VMotorola MC68020+ family
p526
ss(Vimage
p527
g507
tp528
(dp529
Vsuggests
p530
Vvmelilo, fdutils
p531
sVinstall-stem
p532
Vvmlinuz
p533
ss(g165
g507
g133
tp534
(dp535
g168
(lp536
Vm68k
p537
asg172
I01
ss(Vbase
p538
Vmips
p539
tp540
(dp541
g131
(lp542
g133
asVkernel-arch
p543
Vmips
p544
ss(Vbuild
p545
g539
tp546
(dp547
Vsigned-modules
p548
I00
sVimage-file
p549
Vvmlinux
p550
ss(Vimage
p551
g539
NV4kc-malta
p552
tp553
(dp554
Vconfigs
p555
(lp556
Vkernelarch-mips/config.malta
p557
aVkernelarch-mips/config.mips32r2
p558
ass(Vimage
p559
g539
NV5kc-malta
p560
tp561
(dp562
Vconfigs
p563
(lp564
Vkernelarch-mips/config.malta
p565
aVkernelarch-mips/config.mips64r2
p566
ass(Vdescription
p567
g539
NVocteon
p568
tp569
(dp570
Vhardware
p571
VOcteon
p572
sVhardware-long
p573
VCavium Networks Octeon
p574
ss(Vimage
p575
g539
NVocteon
p576
tp577
(dp578
Vconfigs
p579
(lp580
Vkernelarch-mips/config.octeon
p581
ass(Vimage
p582
g539
tp583
(dp584
Vinstall-stem
p585
Vvmlinux
p586
ss(Vdescription
p587
g539
NV5kc-malta
p588
tp589
(dp590
Vhardware
p591
VMIPS Malta (64-bit)
p592
sVhardware-long
p593
VMIPS Malta boards (64-bit)
p594
ss(Vdescription
p595
g539
NV4kc-malta
p596
tp597
(dp598
Vhardware
p599
VMIPS Malta
p600
sVhardware-long
p601
VMIPS Malta boards
p602
ss(g165
g539
g133
tp603
(dp604
g168
(lp605
V4kc-malta
p606
aV5kc-malta
p607
aVocteon
p608
asg172
I01
ss(Vbase
p609
Vmipsel
p610
tp611
(dp612
g131
(lp613
g133
asVkernel-arch
p614
Vmips
p615
ss(Vimage
p616
g610
NVloongson-3
p617
tp618
(dp619
Vconfigs
p620
(lp621
Vkernelarch-mips/config.loongson-3
p622
ass(Vbuild
p623
g610
tp624
(dp625
Vsigned-modules
p626
I00
sVimage-file
p627
Vvmlinux
p628
ss(Vimage
p629
g610
NV4kc-malta
p630
tp631
(dp632
Vconfigs
p633
(lp634
Vkernelarch-mips/config.malta
p635
aVkernelarch-mips/config.mips32r2
p636
ass(Vimage
p637
g610
NV5kc-malta
p638
tp639
(dp640
Vconfigs
p641
(lp642
Vkernelarch-mips/config.malta
p643
aVkernelarch-mips/config.mips64r2
p644
ass(Vdescription
p645
g610
NVocteon
p646
tp647
(dp648
Vhardware
p649
VOcteon
p650
sVhardware-long
p651
VCavium Networks Octeon
p652
ss(Vdescription
p653
g610
NVloongson-3
p654
tp655
(dp656
Vhardware
p657
VLoongson 3A/3B
p658
sVhardware-long
p659
VLoongson 3A or 3B based systems (e.g. from Loongson or Lemote)
p660
ss(Vimage
p661
g610
NVocteon
p662
tp663
(dp664
Vconfigs
p665
(lp666
Vkernelarch-mips/config.octeon
p667
ass(Vimage
p668
g610
tp669
(dp670
Vinstall-stem
p671
Vvmlinux
p672
ss(Vdescription
p673
g610
NV5kc-malta
p674
tp675
(dp676
Vhardware
p677
VMIPS Malta (64-bit)
p678
sVhardware-long
p679
VMIPS Malta boards (64-bit)
p680
ss(Vdescription
p681
g610
NV4kc-malta
p682
tp683
(dp684
Vhardware
p685
VMIPS Malta
p686
sVhardware-long
p687
VMIPS Malta boards
p688
ss(g165
g610
g133
tp689
(dp690
g168
(lp691
V4kc-malta
p692
aV5kc-malta
p693
aVloongson-3
p694
aVocteon
p695
asg172
I01
ss(Vbase
p696
Vmipsn32
p697
tp698
(dp699
Vfeaturesets
p700
(lp701
sVkernel-arch
p702
Vmips
p703
ss(Vbase
p704
Vmipsn32el
p705
tp706
(dp707
Vfeaturesets
p708
(lp709
sVkernel-arch
p710
Vmips
p711
ss(Vbase
p712
Vmips64
p713
tp714
(dp715
g131
(lp716
g133
asVkernel-arch
p717
Vmips
p718
ss(Vbuild
p719
g713
tp720
(dp721
Vsigned-modules
p722
I00
sVimage-file
p723
Vvmlinux
p724
ss(Vimage
p725
g713
NV5kc-malta
p726
tp727
(dp728
Vconfigs
p729
(lp730
Vkernelarch-mips/config.malta
p731
aVkernelarch-mips/config.mips64r2
p732
ass(Vdescription
p733
g713
NVocteon
p734
tp735
(dp736
Vhardware
p737
VOcteon
p738
sVhardware-long
p739
VCavium Networks Octeon
p740
ss(Vimage
p741
g713
tp742
(dp743
Vinstall-stem
p744
Vvmlinux
p745
ss(Vdescription
p746
g713
NV5kc-malta
p747
tp748
(dp749
Vhardware
p750
VMIPS Malta
p751
sVhardware-long
p752
VMIPS Malta boards
p753
ss(Vimage
p754
g713
NVocteon
p755
tp756
(dp757
Vconfigs
p758
(lp759
Vkernelarch-mips/config.octeon
p760
ass(g165
g713
g133
tp761
(dp762
g168
(lp763
V5kc-malta
p764
aVocteon
p765
asg172
I01
ss(Vbase
p766
Vmips64el
p767
tp768
(dp769
g131
(lp770
g133
asVkernel-arch
p771
Vmips
p772
ss(Vimage
p773
g767
NVloongson-3
p774
tp775
(dp776
Vconfigs
p777
(lp778
Vkernelarch-mips/config.loongson-3
p779
ass(Vbuild
p780
g767
tp781
(dp782
Vsigned-modules
p783
I00
sVimage-file
p784
Vvmlinux
p785
ss(Vimage
p786
g767
NV5kc-malta
p787
tp788
(dp789
Vconfigs
p790
(lp791
Vkernelarch-mips/config.malta
p792
aVkernelarch-mips/config.mips64r2
p793
ass(Vdescription
p794
g767
NVocteon
p795
tp796
(dp797
Vhardware
p798
VOcteon
p799
sVhardware-long
p800
VCavium Networks Octeon
p801
ss(Vdescription
p802
g767
NVloongson-3
p803
tp804
(dp805
Vhardware
p806
VLoongson 3A/3B
p807
sVhardware-long
p808
VLoongson 3A or 3B based systems (e.g. from Loongson or Lemote)
p809
ss(Vimage
p810
g767
tp811
(dp812
Vinstall-stem
p813
Vvmlinux
p814
ss(Vdescription
p815
g767
NV5kc-malta
p816
tp817
(dp818
Vhardware
p819
VMIPS Malta
p820
sVhardware-long
p821
VMIPS Malta boards
p822
ss(Vimage
p823
g767
NVocteon
p824
tp825
(dp826
Vconfigs
p827
(lp828
Vkernelarch-mips/config.octeon
p829
ass(g165
g767
g133
tp830
(dp831
g168
(lp832
V5kc-malta
p833
aVloongson-3
p834
aVocteon
p835
asg172
I01
ss(Vbase
p836
Vpowerpc
p837
tp838
(dp839
g131
(lp840
g133
asVkernel-arch
p841
Vpowerpc
p842
ss(Vdescription
p843
g837
NVpowerpc64
p844
tp845
(dp846
Vhardware
p847
V64-bit PowerPC
p848
ss(Vbuild
p849
g837
tp850
(dp851
Vvdso
p852
I01
sVimage-file
p853
Vvmlinux
p854
ss(Vimage
p855
g837
NVpowerpc-smp
p856
tp857
(dp858
Vconfigs
p859
(lp860
Vpowerpc/config.powerpc
p861
aVpowerpc/config.powerpc-smp
p862
ass(Vdescription
p863
g837
NVpowerpc
p864
tp865
(dp866
Vhardware
p867
Vuniprocessor 32-bit PowerPC
p868
ss(Vimage
p869
g837
NVpowerpc64
p870
tp871
(dp872
Vconfigs
p873
(lp874
Vkernelarch-powerpc/config-arch-64
p875
aVkernelarch-powerpc/config-arch-64-be
p876
ass(Vdescription
p877
g837
NVpowerpc-smp
p878
tp879
(dp880
Vhardware
p881
Vmultiprocessor 32-bit PowerPC
p882
ss(Vimage
p883
g837
tp884
(dp885
Vsuggests
p886
Vmkvmlinuz
p887
sVinstall-stem
p888
Vvmlinux
p889
sVconfigs
p890
(lp891
ss(g165
g837
g133
tp892
(dp893
g168
(lp894
Vpowerpc
p895
aVpowerpc-smp
p896
aVpowerpc64
p897
asg172
I01
ss(Vbase
p898
Vpowerpcspe
p899
tp900
(dp901
g131
(lp902
g133
asVkernel-arch
p903
Vpowerpc
p904
ss(Vbuild
p905
g899
tp906
(dp907
Vsigned-modules
p908
I00
sVimage-file
p909
Vvmlinux
p910
sVvdso
p911
I01
ss(Vimage
p912
g899
tp913
(dp914
Vsuggests
p915
Vmkvmlinuz
p916
sVinstall-stem
p917
Vvmlinux
p918
ss(Vdescription
p919
g899
tp920
(dp921
Vhardware
p922
V32-bit PowerPC with SPE (instead of AltiVec) with SMP support
p923
ss(g165
g899
g133
tp924
(dp925
g168
(lp926
Vpowerpcspe
p927
asg172
I01
ss(Vbase
p928
Vppc64
p929
tp930
(dp931
g131
(lp932
g133
asVkernel-arch
p933
Vpowerpc
p934
ss(Vdescription
p935
g929
NVpowerpc64
p936
tp937
(dp938
Vhardware
p939
V64-bit PowerPC
p940
ss(Vbuild
p941
g929
tp942
(dp943
Vsigned-modules
p944
I00
sVimage-file
p945
Vvmlinux
p946
sVvdso
p947
I01
ss(Vimage
p948
g929
NVpowerpc64
p949
tp950
(dp951
Vconfigs
p952
(lp953
Vkernelarch-powerpc/config-arch-64
p954
aVkernelarch-powerpc/config-arch-64-be
p955
ass(Vimage
p956
g929
tp957
(dp958
Vsuggests
p959
Vmkvmlinuz
p960
sVinstall-stem
p961
Vvmlinux
p962
sVconfigs
p963
(lp964
ss(g165
g929
g133
tp965
(dp966
g168
(lp967
Vpowerpc64
p968
asg172
I01
ss(Vbase
p969
Vppc64el
p970
tp971
(dp972
g131
(lp973
g133
asVkernel-arch
p974
Vpowerpc
p975
ss(Vdescription
p976
g970
NVpowerpc64le
p977
tp978
(dp979
Vhardware
p980
VLittle-endian 64-bit PowerPC
p981
ss(Vbuild
p982
g970
tp983
(dp984
Vvdso
p985
I01
sVimage-file
p986
Vvmlinux
p987
ss(Vimage
p988
g970
tp989
(dp990
Vsuggests
p991
Vmkvmlinuz
p992
sVinstall-stem
p993
Vvmlinux
p994
sVconfigs
p995
(lp996
ss(Vimage
p997
g970
NVpowerpc64le
p998
tp999
(dp1000
Vconfigs
p1001
(lp1002
Vkernelarch-powerpc/config-arch-64
p1003
aVkernelarch-powerpc/config-arch-64-le
p1004
ass(g165
g970
g133
tp1005
(dp1006
g168
(lp1007
Vpowerpc64le
p1008
asg172
I01
ss(Vbase
p1009
Vs390
p1010
tp1011
(dp1012
Vfeaturesets
p1013
(lp1014
sVkernel-arch
p1015
Vs390
p1016
ss(Vbase
p1017
Vs390x
p1018
tp1019
(dp1020
g131
(lp1021
g133
asVkernel-arch
p1022
Vs390
p1023
ss(Vdescription
p1024
g1018
NVs390x
p1025
tp1026
(dp1027
Vhardware
p1028
VIBM zSeries
p1029
ss(Vbuild
p1030
g1018
tp1031
(dp1032
Vvdso
p1033
I01
sVimage-file
p1034
Varch/s390/boot/image
p1035
ss(Vbuild
p1036
g1018
NVs390x
p1037
tp1038
(dp1039
Vdebug-info
p1040
I01
ss(Vrelations
p1041
g1018
tp1042
(dp1043
Vheaders%gcc-6
p1044
Vlinux-compiler-gcc-6-s390
p1045
ss(Vimage
p1046
g1018
tp1047
(dp1048
Vinstall-stem
p1049
Vvmlinuz
p1050
sVbootloaders
p1051
(lp1052
Vs390-tools
p1053
ass(g165
g1018
g133
tp1054
(dp1055
g168
(lp1056
Vs390x
p1057
asg172
I01
ss(Vbase
p1058
Vsh3
p1059
tp1060
(dp1061
Vfeaturesets
p1062
(lp1063
sVkernel-arch
p1064
Vsh
p1065
ss(Vbase
p1066
Vsh4
p1067
tp1068
(dp1069
g131
(lp1070
g133
asVkernel-arch
p1071
Vsh
p1072
ss(Vbuild
p1073
g1067
tp1074
(dp1075
Vsigned-modules
p1076
I00
sVimage-file
p1077
Varch/sh/boot/zImage
p1078
ss(Vdescription
p1079
g1067
NVsh7751r
p1080
tp1081
(dp1082
Vhardware
p1083
Vsh7751r
p1084
sVhardware-long
p1085
VRenesas SH7751R R2D plus board
p1086
ss(Vdescription
p1087
g1067
NVsh7785lcr
p1088
tp1089
(dp1090
Vhardware
p1091
Vsh7785lcr
p1092
sVhardware-long
p1093
VRenesas SH7785 reference board
p1094
ss(Vimage
p1095
g1067
tp1096
(dp1097
Vinstall-stem
p1098
Vvmlinuz
p1099
ss(Vimage
p1100
g1067
NVsh7785lcr
p1101
tp1102
(dp1103
Vrecommends
p1104
Vu-boot-tools
p1105
sVcheck-size
p1106
L4194304L
ss(g165
g1067
g133
tp1107
(dp1108
g168
(lp1109
Vsh7751r
p1110
aVsh7785lcr
p1111
asg172
I01
ss(Vbase
p1112
Vsparc
p1113
tp1114
(dp1115
Vfeaturesets
p1116
(lp1117
sVkernel-arch
p1118
Vsparc
p1119
ss(Vbase
p1120
Vsparc64
p1121
tp1122
(dp1123
g131
(lp1124
g133
asVkernel-arch
p1125
Vsparc
p1126
ss(Vbuild
p1127
g1121
tp1128
(dp1129
Vsigned-modules
p1130
I00
sVimage-file
p1131
Varch/sparc/boot/zImage
p1132
ss(Vimage
p1133
g1121
NVsparc64
p1134
tp1135
(dp1136
Vconfigs
p1137
(lp1138
Vkernelarch-sparc/config-up
p1139
ass(Vimage
p1140
g1121
NVsparc64-smp
p1141
tp1142
(dp1143
Vconfigs
p1144
(lp1145
Vkernelarch-sparc/config-smp
p1146
ass(Vimage
p1147
g1121
tp1148
(dp1149
Vsuggests
p1150
Vsilo, fdutils
p1151
sVinstall-stem
p1152
Vvmlinuz
p1153
sVconfigs
p1154
(lp1155
ss(Vdescription
p1156
g1121
NVsparc64-smp
p1157
tp1158
(dp1159
Vhardware
p1160
Vmultiprocessor 64-bit UltraSPARC
p1161
ss(Vdescription
p1162
g1121
NVsparc64
p1163
tp1164
(dp1165
Vhardware
p1166
Vuniprocessor 64-bit UltraSPARC
p1167
ss(g165
g1121
g133
tp1168
(dp1169
g168
(lp1170
Vsparc64
p1171
aVsparc64-smp
p1172
asg172
I01
ss(Vbase
p1173
Vtilegx
p1174
tp1175
(dp1176
Vfeaturesets
p1177
(lp1178
sVkernel-arch
p1179
Vtile
p1180
ss(Vbase
p1181
Vx32
p1182
tp1183
(dp1184
Vfeaturesets
p1185
(lp1186
sVkernel-arch
p1187
Vx86
p1188
ss(Vdescription
p1189
NVrt
p1190
tp1191
(dp1192
Vparts
p1193
(lp1194
Vrt
p1195
asVpart-long-rt
p1196
VThis kernel includes the PREEMPT_RT realtime patch set.
p1197
sVpart-short-rt
p1198
VPREEMPT_RT
p1199
ss(Vabi
p1200
Ng1190
tp1201
(dp1202
Vignore-changes
p1203
(lp1204
V*
p1205
ass(Vversion
p1206
tp1207
(dp1208
Vupstream
p1209
V4.9
p1210
sVsource
p1211
V4.9.82-1+deb9u3
p1212
sVabiname
p1213
V4.9.0-6
p1214
sVabiname_base
p1215
V4.9.0
p1216
ss.