cdebian_linux.config
ConfigCore
p0
(tRp1
(Vabi
p2
tp3
(dp4
Vabiname
p5
V11
p6
sVignore-changes
p7
(lp8
V__cpuhp_*
p9
aVbpf_analyzer
p10
aVcpu_tlbstate
p11
aVcxl_*
p12
aVinet_frag_*
p13
aVinet_frags_*
p14
aVinjectm
p15
aVip6_expire_frag_queue
p16
aVip6_frag_*
p17
aVmce_*
p18
aVmm_iommu_*
p19
aVmv_mbus_*
p20
aVregister_cxl_calls
p21
aVregister_key_type
p22
aVtpm_*
p23
aVtpmm_chip_alloc
p24
aVunregister_cxl_calls
p25
aVmodule:drivers/block/loop
p26
aVmodule:drivers/crypto/ccp/*
p27
aVmodule:drivers/edac/edac_mce_amd
p28
aVmodule:drivers/hv/*
p29
aVmodule:drivers/iio/common/hid-sensors/*
p30
aVmodule:drivers/iio/common/st_sensors/**
p31
aVmodule:drivers/net/ethernet/**
p32
aVmodule:drivers/net/wireless/**
p33
aVmodule:drivers/nfc/**
p34
aVmodule:drivers/nvdimm/*
p35
aVmodule:drivers/nvme/**
p36
aVmodule:drivers/power/supply/bq27xxx_battery
p37
aVmodule:drivers/s390/net/qeth
p38
aVmodule:drivers/s390/net/qeth*
p39
aVmodule:drivers/scsi/cxgbi/*
p40
aVmodule:drivers/scsi/esp_scsi
p41
aVmodule:drivers/scsi/libiscs*
p42
aVmodule:drivers/scsi/qla2xxx/qla2xxx
p43
aVmodule:drivers/scsi/ufs/*
p44
aVmodule:drivers/target/**
p45
aVmodule:drivers/usb/chipidea/**
p46
aVmodule:drivers/usb/gadget/**
p47
aVmodule:drivers/usb/host/**
p48
aVmodule:drivers/usb/musb/**
p49
aVmodule:drivers/vhost/vhost
p50
aVmodule:fs/nfs/nfs
p51
aVmodule:net/ceph/libceph
p52
aVmodule:net/nfc/hci/hci
p53
aVmodule:net/l2tp/**
p54
aVmodule:net/vmw_vsock/*
p55
aVmodule:sound/firewire/snd-firewire-lib
p56
aVmodule:sound/pci/hda/*
p57
aVbtree_*
p58
aVvisitor*
p59
aVcan_rx_register
p60
aVip6_xmit
p61
aVmodule:net/dccp/dccp
p62
aVmodule:net/rds/rds
p63
aVdevfreq_*
p64
aVdevm_devfreq_*
p65
aVupdate_devfreq
p66
aVmodule:drivers/infiniband/**
p67
aVacpi_ec_add_query_handler
p68
aVacpi_ec_remove_query_handler
p69
aVfirst_ec
p70
aVdebugfs_create_automount
p71
aV__gfn_*
p72
aV__kvm_*
p73
aVgfn_*
p74
aVkvm_*
p75
aVmark_page_dirty
p76
aVvcpu_*
p77
aVmodule:arch/powerpc/kvm/*
p78
aVmodule:arch/s390/kvm/*
p79
aVmodule:arch/x86/kvm/*
p80
aV*_xen_*
p81
aV*_xenballooned_*
p82
aV*_xenbus_*
p83
aV*_xenstore_*
p84
aVgnttab_*
p85
aVHYPERVISOR_*
p86
aVx86_hyper_xen
p87
aVxen_*
p88
aVxenbus_*
p89
aVreturn_address
p90
aVbr_netfilter_enable
p91
ass(Vbase
p92
tp93
(dp94
Varches
p95
(lp96
Valpha
p97
aVamd64
p98
aVarm64
p99
aVarmel
p100
aVarmhf
p101
aVhppa
p102
aVi386
p103
aVm68k
p104
aVmips
p105
aVmipsel
p106
aVmipsn32
p107
aVmipsn32el
p108
aVmips64
p109
aVmips64el
p110
aVpowerpc
p111
aVpowerpcspe
p112
aVppc64
p113
aVppc64el
p114
aVs390
p115
aVs390x
p116
aVsh3
p117
aVsh4
p118
aVsparc
p119
aVsparc64
p120
aVtilegx
p121
aVx32
p122
asVcompiler
p123
Vgcc-6
p124
sVfeaturesets
p125
(lp126
Vnone
p127
aVrt
p128
ass(Vbuild
p129
tp130
(dp131
Vdebug-info
p132
I01
sVsigned-modules
p133
I00
ss(Vbase
p134
NVrt
p135
tp136
(dp137
Venabled
p138
I01
ss(Vdescription
p139
tp140
(dp141
Vpart-long-up
p142
VThis kernel is not suitable for SMP (multi-processor,\u000amulti-core or hyper-threaded) systems.
p143
sVpart-long-xen
p144
VThis kernel also runs on a Xen hypervisor.\u000aIt supports both privileged (dom0) and unprivileged (domU) operation.
p145
ss(Vimage
p146
tp147
(dp148
Vinitramfs-generators
p149
(lp150
Vinitramfs-tools
p151
aVinitramfs-fallback
p152
ass(Vrelations
p153
tp154
(dp155
Vgcc-6
p156
Vgcc-6 <!stage1 !cross>, gcc-6-@gnu-type-package@ <!stage1 cross>
p157
sVinitramfs-fallback
p158
Vlinux-initramfs-tool
p159
sVinitramfs-tools
p160
Vinitramfs-tools (>= 0.120+deb8u2)
p161
ss(Vbase
p162
Valpha
p163
tp164
(dp165
Vkernel-arch
p166
Valpha
p167
sVfeaturesets
p168
(lp169
Vnone
p170
ass(Vbuild
p171
g163
tp172
(dp173
Vimage-file
p174
Varch/alpha/boot/vmlinux.gz
p175
sVsigned-modules
p176
I00
ss(Vimage
p177
g163
tp178
(dp179
Vsuggests
p180
Vaboot, fdutils
p181
sVinstall-stem
p182
Vvmlinuz
p183
ss(Vdescription
p184
g163
NValpha-generic
p185
tp186
(dp187
Vhardware
p188
VAlpha
p189
sVhardware-long
p190
VDEC Alpha systems with extended kernel start address (Wildfire, Titan, Marvel)
p191
ss(Vdescription
p192
g163
NValpha-smp
p193
tp194
(dp195
Vhardware
p196
VAlpha SMP
p197
sVhardware-long
p198
VDEC Alpha SMP systems with extended kernel start address (Wildfire, Titan, Marvel)
p199
ss(Vbase
p200
g163
g170
tp201
(dp202
Vflavours
p203
(lp204
Valpha-generic
p205
aValpha-smp
p206
asVimplicit-flavour
p207
I01
ss(Vbase
p208
Vamd64
p209
tp210
(dp211
Vfeaturesets
p212
(lp213
Vnone
p214
aVrt
p215
asVkernel-arch
p216
Vx86
p217
ss(Vbuild
p218
g209
tp219
(dp220
Vdebug-info
p221
I01
sVimage-file
p222
Varch/x86/boot/bzImage
p223
sVvdso
p224
I01
ss(Vimage
p225
g209
tp226
(dp227
Vbootloaders
p228
(lp229
Vgrub-pc
p230
aVgrub-efi-amd64
p231
aVextlinux
p232
asVinstall-stem
p233
Vvmlinuz
p234
sVbreaks
p235
Vxserver-xorg-input-vmmouse (<< 1:13.0.99), qemu-system-x86 (<< 1:2.5+dfsg-1)
p236
ss(Vrelations
p237
g209
tp238
(dp239
Vgcc-6
p240
Vgcc-6 (>= 6.3.0-18+deb9u1~) <!stage1 !cross>, gcc-6-@gnu-type-package@ (>= 6.3.0-18+deb9u1~) <!stage1 cross>
p241
sVheaders%gcc-6
p242
Vlinux-compiler-gcc-6-x86 (>= 4.9.82-1+deb9u1~)
p243
ss(Vdescription
p244
g209
NVamd64
p245
tp246
(dp247
Vhardware
p248
V64-bit PCs
p249
sVhardware-long
p250
VPCs with AMD64, Intel 64 or VIA Nano processors
p251
ss(Vbase
p252
g209
Vnone
p253
tp254
(dp255
Vflavours
p256
(lp257
Vamd64
p258
ass(Vdescription
p259
g209
g253
Vamd64
p260
tp261
(dp262
Vparts
p263
(lp264
Vxen
p265
ass(Vbase
p266
g209
Vrt
p267
tp268
(dp269
Vflavours
p270
(lp271
Vamd64
p272
ass(Vbase
p273
Varm64
p274
tp275
(dp276
Vkernel-arch
p277
Varm64
p278
sVfeaturesets
p279
(lp280
Vnone
p281
ass(Vbuild
p282
g274
tp283
(dp284
Vdebug-info
p285
I01
sVimage-file
p286
Varch/arm64/boot/Image
p287
sVvdso
p288
I01
ss(Vimage
p289
g274
tp290
(dp291
Vinstall-stem
p292
Vvmlinuz
p293
sVbreaks
p294
Vlibmozjs185-1.0, libmozjs-24-0 (<< 24.2.0-5.1~)
p295
ss(Vdescription
p296
g274
NVarm64
p297
tp298
(dp299
Vhardware
p300
V64-bit ARMv8 machines
p301
ss(Vimage
p302
g274
NVarm64
p303
tp304
(dp305
s(Vbase
p306
g274
Vnone
p307
tp308
(dp309
Vflavours
p310
(lp311
Varm64
p312
ass(Vbase
p313
Varmel
p314
tp315
(dp316
Vkernel-arch
p317
Varm
p318
sg168
(lp319
g170
ass(Vbuild
p320
g314
tp321
(dp322
Vimage-file
p323
Varch/arm/boot/zImage
p324
sVsigned-modules
p325
I00
ss(Vimage
p326
g314
tp327
(dp328
Vinstall-stem
p329
Vvmlinuz
p330
ss(Vrelations
p331
g314
tp332
(dp333
Vheaders%gcc-6
p334
Vlinux-compiler-gcc-6-arm
p335
ss(Vdescription
p336
g314
NVmarvell
p337
tp338
(dp339
Vhardware
p340
VMarvell Kirkwood/Orion
p341
sVhardware-long
p342
VMarvell Kirkwood based systems (SheevaPlug, QNAP TS-119/TS-219, etc)\u000aand Orion 5181, 5182 and 5281 based systems (QNAP TS-109/TS-209, etc)
p343
ss(Vimage
p344
g314
NVmarvell
p345
tp346
(dp347
Vrecommends
p348
Vu-boot-tools
p349
sVcheck-size
p350
I2097080
sVcheck-size-with-dtb
p351
I01
sVbreaks
p352
Vflash-kernel (<< 3.57~)
p353
ss(g200
g314
g170
tp354
(dp355
g203
(lp356
Vmarvell
p357
asg207
I01
ss(Vbase
p358
Varmhf
p359
tp360
(dp361
Vkernel-arch
p362
Varm
p363
sg168
(lp364
g170
ass(Vbuild
p365
g359
tp366
(dp367
Vimage-file
p368
Varch/arm/boot/zImage
p369
sVvdso
p370
I01
ss(Vimage
p371
g359
tp372
(dp373
Vinstall-stem
p374
Vvmlinuz
p375
ss(Vrelations
p376
g359
tp377
(dp378
Vheaders%gcc-6
p379
Vlinux-compiler-gcc-6-arm
p380
ss(Vdescription
p381
g359
NVarmmp
p382
tp383
(dp384
Vhardware
p385
VARMv7 multiplatform compatible SoCs
p386
sVhardware-long
p387
VARMv7 multiplatform kernel. See\u000ahttps://wiki.debian.org/DebianKernel/ARMMP for details of supported\u000aplatforms
p388
ss(Vdescription
p389
g359
NVarmmp-lpae
p390
tp391
(dp392
Vhardware
p393
VARMv7 multiplatform compatible SoCs supporting LPAE
p394
sVhardware-long
p395
VARMv7 multiplatform kernel supporting LPAE. See\u000ahttps://wiki.debian.org/DebianKernel/ARMMP for details of supported\u000aplatforms.
p396
ss(g200
g359
g170
tp397
(dp398
g203
(lp399
Varmmp
p400
aVarmmp-lpae
p401
asg207
I01
ss(Vbase
p402
Vhppa
p403
tp404
(dp405
Vkernel-arch
p406
Vparisc
p407
sg168
(lp408
g170
ass(Vbuild
p409
g403
tp410
(dp411
Vimage-file
p412
Vvmlinux
p413
sVsigned-modules
p414
I00
ss(Vimage
p415
g403
tp416
(dp417
Vsuggests
p418
Vpalo
p419
sVinstall-stem
p420
Vvmlinux
p421
ss(Vdescription
p422
g403
NVparisc
p423
tp424
(dp425
Vhardware
p426
V32-bit PA-RISC
p427
sVhardware-long
p428
VHP PA-RISC 32-bit systems with max 4 GB RAM
p429
ss(Vbase
p430
g403
NVparisc64-smp
p431
tp432
(dp433
Vcflags
p434
V-fno-cse-follow-jumps
p435
sVoverride-host-type
p436
Vhppa64-linux-gnu
p437
ss(Vdescription
p438
g403
NVparisc64-smp
p439
tp440
(dp441
Vhardware
p442
Vmultiprocessor 64-bit PA-RISC
p443
sVhardware-long
p444
VHP PA-RISC 64-bit SMP systems with support for more than 4 GB RAM
p445
ss(Vrelations
p446
g403
tp447
(dp448
Vgcc-6
p449
Vgcc-6 <!stage1 !cross>, binutils-hppa64-linux-gnu <!stage1 !cross>, gcc-6-hppa64-linux-gnu <!stage1 !cross>, gcc-6-hppa-linux-gnu <!stage1 cross>, binutils-hppa64-linux-gnu <!stage1 cross>, gcc-6-hppa64-linux-gnu <!stage1 cross>
p450
ss(g200
g403
g170
tp451
(dp452
g203
(lp453
Vparisc
p454
aVparisc64-smp
p455
asg207
I01
ss(Vbase
p456
Vi386
p457
tp458
(dp459
Vfeaturesets
p460
(lp461
Vnone
p462
aVrt
p463
asVkernel-arch
p464
Vx86
p465
ss(Vbuild
p466
g457
tp467
(dp468
Vimage-file
p469
Varch/x86/boot/bzImage
p470
sVvdso
p471
I01
ss(Vdescription
p472
g457
tp473
(dp474
Vpart-long-pae
p475
VThis kernel requires PAE (Physical Address Extension).\u000aThis feature is supported by the Intel Pentium Pro/II/III/4/4M/D, Xeon,\u000aCore and Atom; AMD Geode NX, Athlon (K7), Duron, Opteron, Sempron,\u000aTurion or Phenom; Transmeta Efficeon; VIA C7; and some other processors.
p476
ss(Vimage
p477
g457
tp478
(dp479
Vbootloaders
p480
(lp481
Vgrub-pc
p482
aVextlinux
p483
asVinstall-stem
p484
Vvmlinuz
p485
sVbreaks
p486
Vxserver-xorg-input-vmmouse (<< 1:13.0.99), qemu-system-x86 (<< 1:2.5+dfsg-1)
p487
ss(Vrelations
p488
g457
tp489
(dp490
Vgcc-6
p491
Vgcc-6 (>= 6.3.0-18+deb9u1~) <!stage1 !cross>, gcc-6-@gnu-type-package@ (>= 6.3.0-18+deb9u1~) <!stage1 cross>
p492
sVheaders%gcc-6
p493
Vlinux-compiler-gcc-6-x86 (>= 4.9.82-1+deb9u1~)
p494
ss(Vdescription
p495
g457
NV686
p496
tp497
(dp498
Vhardware
p499
Volder PCs
p500
sVhardware-long
p501
VPCs with one or more processors not supporting PAE
p502
ss(Vbuild
p503
g457
NV686-pae
p504
tp505
(dp506
Vdebug-info
p507
I01
ss(Vdescription
p508
g457
NV686-pae
p509
tp510
(dp511
Vhardware
p512
Vmodern PCs
p513
sVhardware-long
p514
VPCs with one or more processors supporting PAE
p515
sVparts
p516
(lp517
Vpae
p518
ass(Vbase
p519
g457
Vnone
p520
tp521
(dp522
Vflavours
p523
(lp524
V686
p525
aV686-pae
p526
ass(Vdescription
p527
g457
g520
V686-pae
p528
tp529
(dp530
Vparts
p531
(lp532
Vxen
p533
ass(Vbase
p534
g457
Vrt
p535
tp536
(dp537
Vflavours
p538
(lp539
V686-pae
p540
ass(Vbase
p541
Vm68k
p542
tp543
(dp544
Vcflags
p545
V-ffreestanding
p546
sVkernel-arch
p547
Vm68k
p548
sg168
(lp549
g170
ass(Vbuild
p550
g542
tp551
(dp552
Vimage-file
p553
Vvmlinux.gz
p554
sVsigned-modules
p555
I00
ss(Vimage
p556
g542
tp557
(dp558
Vsuggests
p559
Vvmelilo, fdutils
p560
sVinstall-stem
p561
Vvmlinuz
p562
ss(Vdescription
p563
g542
NVm68k
p564
tp565
(dp566
Vhardware
p567
VMotorola MC68020+ family
p568
ss(g200
g542
g170
tp569
(dp570
g203
(lp571
Vm68k
p572
asg207
I01
ss(Vbase
p573
Vmips
p574
tp575
(dp576
Vkernel-arch
p577
Vmips
p578
sg168
(lp579
g170
ass(Vbuild
p580
g574
tp581
(dp582
Vimage-file
p583
Vvmlinux
p584
sVsigned-modules
p585
I00
ss(Vimage
p586
g574
tp587
(dp588
Vinstall-stem
p589
Vvmlinux
p590
ss(Vdescription
p591
g574
NV4kc-malta
p592
tp593
(dp594
Vhardware
p595
VMIPS Malta
p596
sVhardware-long
p597
VMIPS Malta boards
p598
ss(Vimage
p599
g574
NV4kc-malta
p600
tp601
(dp602
Vconfigs
p603
(lp604
Vkernelarch-mips/config.malta
p605
aVkernelarch-mips/config.mips32r2
p606
ass(Vdescription
p607
g574
NV5kc-malta
p608
tp609
(dp610
Vhardware
p611
VMIPS Malta (64-bit)
p612
sVhardware-long
p613
VMIPS Malta boards (64-bit)
p614
ss(Vimage
p615
g574
NV5kc-malta
p616
tp617
(dp618
Vconfigs
p619
(lp620
Vkernelarch-mips/config.malta
p621
aVkernelarch-mips/config.mips64r2
p622
ass(Vdescription
p623
g574
NVocteon
p624
tp625
(dp626
Vhardware
p627
VOcteon
p628
sVhardware-long
p629
VCavium Networks Octeon
p630
ss(Vimage
p631
g574
NVocteon
p632
tp633
(dp634
Vconfigs
p635
(lp636
Vkernelarch-mips/config.octeon
p637
ass(g200
g574
g170
tp638
(dp639
g203
(lp640
V4kc-malta
p641
aV5kc-malta
p642
aVocteon
p643
asg207
I01
ss(Vbase
p644
Vmipsel
p645
tp646
(dp647
Vkernel-arch
p648
Vmips
p649
sg168
(lp650
g170
ass(Vbuild
p651
g645
tp652
(dp653
Vimage-file
p654
Vvmlinux
p655
sVsigned-modules
p656
I00
ss(Vimage
p657
g645
tp658
(dp659
Vinstall-stem
p660
Vvmlinux
p661
ss(Vdescription
p662
g645
NV4kc-malta
p663
tp664
(dp665
Vhardware
p666
VMIPS Malta
p667
sVhardware-long
p668
VMIPS Malta boards
p669
ss(Vimage
p670
g645
NV4kc-malta
p671
tp672
(dp673
Vconfigs
p674
(lp675
Vkernelarch-mips/config.malta
p676
aVkernelarch-mips/config.mips32r2
p677
ass(Vdescription
p678
g645
NV5kc-malta
p679
tp680
(dp681
Vhardware
p682
VMIPS Malta (64-bit)
p683
sVhardware-long
p684
VMIPS Malta boards (64-bit)
p685
ss(Vimage
p686
g645
NV5kc-malta
p687
tp688
(dp689
Vconfigs
p690
(lp691
Vkernelarch-mips/config.malta
p692
aVkernelarch-mips/config.mips64r2
p693
ass(Vdescription
p694
g645
NVloongson-3
p695
tp696
(dp697
Vhardware
p698
VLoongson 3A/3B
p699
sVhardware-long
p700
VLoongson 3A or 3B based systems (e.g. from Loongson or Lemote)
p701
ss(Vimage
p702
g645
NVloongson-3
p703
tp704
(dp705
Vconfigs
p706
(lp707
Vkernelarch-mips/config.loongson-3
p708
ass(Vdescription
p709
g645
NVocteon
p710
tp711
(dp712
Vhardware
p713
VOcteon
p714
sVhardware-long
p715
VCavium Networks Octeon
p716
ss(Vimage
p717
g645
NVocteon
p718
tp719
(dp720
Vconfigs
p721
(lp722
Vkernelarch-mips/config.octeon
p723
ass(g200
g645
g170
tp724
(dp725
g203
(lp726
V4kc-malta
p727
aV5kc-malta
p728
aVloongson-3
p729
aVocteon
p730
asg207
I01
ss(Vbase
p731
Vmipsn32
p732
tp733
(dp734
Vkernel-arch
p735
Vmips
p736
sVfeaturesets
p737
(lp738
ss(Vbase
p739
Vmipsn32el
p740
tp741
(dp742
Vkernel-arch
p743
Vmips
p744
sVfeaturesets
p745
(lp746
ss(Vbase
p747
Vmips64
p748
tp749
(dp750
Vkernel-arch
p751
Vmips
p752
sg168
(lp753
g170
ass(Vbuild
p754
g748
tp755
(dp756
Vimage-file
p757
Vvmlinux
p758
sVsigned-modules
p759
I00
ss(Vimage
p760
g748
tp761
(dp762
Vinstall-stem
p763
Vvmlinux
p764
ss(Vdescription
p765
g748
NV5kc-malta
p766
tp767
(dp768
Vhardware
p769
VMIPS Malta
p770
sVhardware-long
p771
VMIPS Malta boards
p772
ss(Vimage
p773
g748
NV5kc-malta
p774
tp775
(dp776
Vconfigs
p777
(lp778
Vkernelarch-mips/config.malta
p779
aVkernelarch-mips/config.mips64r2
p780
ass(Vdescription
p781
g748
NVocteon
p782
tp783
(dp784
Vhardware
p785
VOcteon
p786
sVhardware-long
p787
VCavium Networks Octeon
p788
ss(Vimage
p789
g748
NVocteon
p790
tp791
(dp792
Vconfigs
p793
(lp794
Vkernelarch-mips/config.octeon
p795
ass(g200
g748
g170
tp796
(dp797
g203
(lp798
V5kc-malta
p799
aVocteon
p800
asg207
I01
ss(Vbase
p801
Vmips64el
p802
tp803
(dp804
Vkernel-arch
p805
Vmips
p806
sg168
(lp807
g170
ass(Vbuild
p808
g802
tp809
(dp810
Vimage-file
p811
Vvmlinux
p812
sVsigned-modules
p813
I00
ss(Vimage
p814
g802
tp815
(dp816
Vinstall-stem
p817
Vvmlinux
p818
ss(Vdescription
p819
g802
NV5kc-malta
p820
tp821
(dp822
Vhardware
p823
VMIPS Malta
p824
sVhardware-long
p825
VMIPS Malta boards
p826
ss(Vimage
p827
g802
NV5kc-malta
p828
tp829
(dp830
Vconfigs
p831
(lp832
Vkernelarch-mips/config.malta
p833
aVkernelarch-mips/config.mips64r2
p834
ass(Vdescription
p835
g802
NVloongson-3
p836
tp837
(dp838
Vhardware
p839
VLoongson 3A/3B
p840
sVhardware-long
p841
VLoongson 3A or 3B based systems (e.g. from Loongson or Lemote)
p842
ss(Vimage
p843
g802
NVloongson-3
p844
tp845
(dp846
Vconfigs
p847
(lp848
Vkernelarch-mips/config.loongson-3
p849
ass(Vdescription
p850
g802
NVocteon
p851
tp852
(dp853
Vhardware
p854
VOcteon
p855
sVhardware-long
p856
VCavium Networks Octeon
p857
ss(Vimage
p858
g802
NVocteon
p859
tp860
(dp861
Vconfigs
p862
(lp863
Vkernelarch-mips/config.octeon
p864
ass(g200
g802
g170
tp865
(dp866
g203
(lp867
V5kc-malta
p868
aVloongson-3
p869
aVocteon
p870
asg207
I01
ss(Vbase
p871
Vpowerpc
p872
tp873
(dp874
Vkernel-arch
p875
Vpowerpc
p876
sg168
(lp877
g170
ass(Vbuild
p878
g872
tp879
(dp880
Vimage-file
p881
Vvmlinux
p882
sVvdso
p883
I01
ss(Vimage
p884
g872
tp885
(dp886
Vconfigs
p887
(lp888
sVsuggests
p889
Vmkvmlinuz
p890
sVinstall-stem
p891
Vvmlinux
p892
ss(Vdescription
p893
g872
NVpowerpc
p894
tp895
(dp896
Vhardware
p897
Vuniprocessor 32-bit PowerPC
p898
ss(Vdescription
p899
g872
NVpowerpc-smp
p900
tp901
(dp902
Vhardware
p903
Vmultiprocessor 32-bit PowerPC
p904
ss(Vimage
p905
g872
NVpowerpc-smp
p906
tp907
(dp908
Vconfigs
p909
(lp910
Vpowerpc/config.powerpc
p911
aVpowerpc/config.powerpc-smp
p912
ass(Vdescription
p913
g872
NVpowerpc64
p914
tp915
(dp916
Vhardware
p917
V64-bit PowerPC
p918
ss(Vimage
p919
g872
NVpowerpc64
p920
tp921
(dp922
Vconfigs
p923
(lp924
Vkernelarch-powerpc/config-arch-64
p925
aVkernelarch-powerpc/config-arch-64-be
p926
ass(g200
g872
g170
tp927
(dp928
g203
(lp929
Vpowerpc
p930
aVpowerpc-smp
p931
aVpowerpc64
p932
asg207
I01
ss(Vbase
p933
Vpowerpcspe
p934
tp935
(dp936
Vkernel-arch
p937
Vpowerpc
p938
sg168
(lp939
g170
ass(Vbuild
p940
g934
tp941
(dp942
Vimage-file
p943
Vvmlinux
p944
sVsigned-modules
p945
I00
sVvdso
p946
I01
ss(Vimage
p947
g934
tp948
(dp949
Vsuggests
p950
Vmkvmlinuz
p951
sVinstall-stem
p952
Vvmlinux
p953
ss(Vdescription
p954
g934
tp955
(dp956
Vhardware
p957
V32-bit PowerPC with SPE (instead of AltiVec) with SMP support
p958
ss(g200
g934
g170
tp959
(dp960
g203
(lp961
Vpowerpcspe
p962
asg207
I01
ss(Vbase
p963
Vppc64
p964
tp965
(dp966
Vkernel-arch
p967
Vpowerpc
p968
sg168
(lp969
g170
ass(Vbuild
p970
g964
tp971
(dp972
Vimage-file
p973
Vvmlinux
p974
sVsigned-modules
p975
I00
sVvdso
p976
I01
ss(Vimage
p977
g964
tp978
(dp979
Vconfigs
p980
(lp981
sVsuggests
p982
Vmkvmlinuz
p983
sVinstall-stem
p984
Vvmlinux
p985
ss(Vdescription
p986
g964
NVpowerpc64
p987
tp988
(dp989
Vhardware
p990
V64-bit PowerPC
p991
ss(Vimage
p992
g964
NVpowerpc64
p993
tp994
(dp995
Vconfigs
p996
(lp997
Vkernelarch-powerpc/config-arch-64
p998
aVkernelarch-powerpc/config-arch-64-be
p999
ass(g200
g964
g170
tp1000
(dp1001
g203
(lp1002
Vpowerpc64
p1003
asg207
I01
ss(Vbase
p1004
Vppc64el
p1005
tp1006
(dp1007
Vkernel-arch
p1008
Vpowerpc
p1009
sg168
(lp1010
g170
ass(Vbuild
p1011
g1005
tp1012
(dp1013
Vimage-file
p1014
Vvmlinux
p1015
sVvdso
p1016
I01
ss(Vimage
p1017
g1005
tp1018
(dp1019
Vconfigs
p1020
(lp1021
sVsuggests
p1022
Vmkvmlinuz
p1023
sVinstall-stem
p1024
Vvmlinux
p1025
ss(Vdescription
p1026
g1005
NVpowerpc64le
p1027
tp1028
(dp1029
Vhardware
p1030
VLittle-endian 64-bit PowerPC
p1031
ss(Vimage
p1032
g1005
NVpowerpc64le
p1033
tp1034
(dp1035
Vconfigs
p1036
(lp1037
Vkernelarch-powerpc/config-arch-64
p1038
aVkernelarch-powerpc/config-arch-64-le
p1039
ass(g200
g1005
g170
tp1040
(dp1041
g203
(lp1042
Vpowerpc64le
p1043
asg207
I01
ss(Vbase
p1044
Vs390
p1045
tp1046
(dp1047
Vkernel-arch
p1048
Vs390
p1049
sVfeaturesets
p1050
(lp1051
ss(Vbase
p1052
Vs390x
p1053
tp1054
(dp1055
Vkernel-arch
p1056
Vs390
p1057
sg168
(lp1058
g170
ass(Vbuild
p1059
g1053
tp1060
(dp1061
Vimage-file
p1062
Varch/s390/boot/image
p1063
sVvdso
p1064
I01
ss(Vimage
p1065
g1053
tp1066
(dp1067
Vbootloaders
p1068
(lp1069
Vs390-tools
p1070
asVinstall-stem
p1071
Vvmlinuz
p1072
ss(Vrelations
p1073
g1053
tp1074
(dp1075
Vheaders%gcc-6
p1076
Vlinux-compiler-gcc-6-s390
p1077
ss(Vbuild
p1078
g1053
NVs390x
p1079
tp1080
(dp1081
Vdebug-info
p1082
I01
ss(Vdescription
p1083
g1053
NVs390x
p1084
tp1085
(dp1086
Vhardware
p1087
VIBM zSeries
p1088
ss(g200
g1053
g170
tp1089
(dp1090
g203
(lp1091
Vs390x
p1092
asg207
I01
ss(Vbase
p1093
Vsh3
p1094
tp1095
(dp1096
Vkernel-arch
p1097
Vsh
p1098
sVfeaturesets
p1099
(lp1100
ss(Vbase
p1101
Vsh4
p1102
tp1103
(dp1104
Vkernel-arch
p1105
Vsh
p1106
sg168
(lp1107
g170
ass(Vbuild
p1108
g1102
tp1109
(dp1110
Vimage-file
p1111
Varch/sh/boot/zImage
p1112
sVsigned-modules
p1113
I00
ss(Vimage
p1114
g1102
tp1115
(dp1116
Vinstall-stem
p1117
Vvmlinuz
p1118
ss(Vdescription
p1119
g1102
NVsh7751r
p1120
tp1121
(dp1122
Vhardware
p1123
Vsh7751r
p1124
sVhardware-long
p1125
VRenesas SH7751R R2D plus board
p1126
ss(Vdescription
p1127
g1102
NVsh7785lcr
p1128
tp1129
(dp1130
Vhardware
p1131
Vsh7785lcr
p1132
sVhardware-long
p1133
VRenesas SH7785 reference board
p1134
ss(Vimage
p1135
g1102
NVsh7785lcr
p1136
tp1137
(dp1138
Vrecommends
p1139
Vu-boot-tools
p1140
sVcheck-size
p1141
I4194304
ss(g200
g1102
g170
tp1142
(dp1143
g203
(lp1144
Vsh7751r
p1145
aVsh7785lcr
p1146
asg207
I01
ss(Vbase
p1147
Vsparc
p1148
tp1149
(dp1150
Vkernel-arch
p1151
Vsparc
p1152
sVfeaturesets
p1153
(lp1154
ss(Vbase
p1155
Vsparc64
p1156
tp1157
(dp1158
Vkernel-arch
p1159
Vsparc
p1160
sg168
(lp1161
g170
ass(Vbuild
p1162
g1156
tp1163
(dp1164
Vimage-file
p1165
Varch/sparc/boot/zImage
p1166
sVsigned-modules
p1167
I00
ss(Vimage
p1168
g1156
tp1169
(dp1170
Vconfigs
p1171
(lp1172
sVsuggests
p1173
Vsilo, fdutils
p1174
sVinstall-stem
p1175
Vvmlinuz
p1176
ss(Vdescription
p1177
g1156
NVsparc64
p1178
tp1179
(dp1180
Vhardware
p1181
Vuniprocessor 64-bit UltraSPARC
p1182
ss(Vimage
p1183
g1156
NVsparc64
p1184
tp1185
(dp1186
Vconfigs
p1187
(lp1188
Vkernelarch-sparc/config-up
p1189
ass(Vdescription
p1190
g1156
NVsparc64-smp
p1191
tp1192
(dp1193
Vhardware
p1194
Vmultiprocessor 64-bit UltraSPARC
p1195
ss(Vimage
p1196
g1156
NVsparc64-smp
p1197
tp1198
(dp1199
Vconfigs
p1200
(lp1201
Vkernelarch-sparc/config-smp
p1202
ass(g200
g1156
g170
tp1203
(dp1204
g203
(lp1205
Vsparc64
p1206
aVsparc64-smp
p1207
asg207
I01
ss(Vbase
p1208
Vtilegx
p1209
tp1210
(dp1211
Vkernel-arch
p1212
Vtile
p1213
sVfeaturesets
p1214
(lp1215
ss(Vbase
p1216
Vx32
p1217
tp1218
(dp1219
Vkernel-arch
p1220
Vx86
p1221
sVfeaturesets
p1222
(lp1223
ss(Vabi
p1224
NVrt
p1225
tp1226
(dp1227
Vignore-changes
p1228
(lp1229
V*
p1230
ass(Vdescription
p1231
Ng1225
tp1232
(dp1233
Vpart-long-rt
p1234
VThis kernel includes the PREEMPT_RT realtime patch set.
p1235
sVpart-short-rt
p1236
VPREEMPT_RT
p1237
sVparts
p1238
(lp1239
Vrt
p1240
ass(Vversion
p1241
tp1242
(dp1243
Vsource
p1244
V4.9.189-3+deb9u1
p1245
sVupstream
p1246
V4.9
p1247
sVabiname_base
p1248
V4.9.0
p1249
sVabiname
p1250
V4.9.0-11
p1251
ss.