cdebian_linux.config
ConfigCore
p0
(tRp1
(Vbase
p2
tp3
(dp4
Varches
p5
(lp6
Valpha
p7
aVamd64
p8
aVarm64
p9
aVarmel
p10
aVarmhf
p11
aVhppa
p12
aVi386
p13
aVm68k
p14
aVmips
p15
aVmipsel
p16
aVmipsn32
p17
aVmipsn32el
p18
aVmips64
p19
aVmips64el
p20
aVpowerpc
p21
aVpowerpcspe
p22
aVppc64
p23
aVppc64el
p24
aVs390
p25
aVs390x
p26
aVsh3
p27
aVsh4
p28
aVsparc
p29
aVsparc64
p30
aVtilegx
p31
aVx32
p32
asVfeaturesets
p33
(lp34
Vnone
p35
aVrt
p36
asVcompiler
p37
Vgcc-6
p38
ss(Vbuild
p39
tp40
(dp41
Vsigned-modules
p42
I00
sVdebug-info
p43
I01
ss(Vbase
p44
NVrt
p45
tp46
(dp47
Venabled
p48
I01
ss(Vdescription
p49
tp50
(dp51
Vpart-long-up
p52
VThis kernel is not suitable for SMP (multi-processor,\u000amulti-core or hyper-threaded) systems.
p53
sVpart-long-xen
p54
VThis kernel also runs on a Xen hypervisor.\u000aIt supports both privileged (dom0) and unprivileged (domU) operation.
p55
ss(Vrelations
p56
tp57
(dp58
Vinitramfs-tools
p59
Vinitramfs-tools (>= 0.120+deb8u2)
p60
sVgcc-6
p61
Vgcc-6 <!stage1 !cross>, gcc-6-@gnu-type-package@ <!stage1 cross>
p62
sVinitramfs-fallback
p63
Vlinux-initramfs-tool
p64
ss(Vimage
p65
tp66
(dp67
Vinitramfs-generators
p68
(lp69
Vinitramfs-tools
p70
aVinitramfs-fallback
p71
ass(Vabi
p72
tp73
(dp74
Vabiname
p75
V6
p76
sVignore-changes
p77
(lp78
V__cpuhp_*
p79
aVbpf_analyzer
p80
aVboot_cpu_data
p81
aVcxl_*
p82
aVcpu_info
p83
aVinet_frag_*
p84
aVinet_frags_*
p85
aVx86_hyper
p86
aVx86_hyper_*
p87
aVxen_xlate_map_ballooned_pages
p88
aVmm_iommu_*
p89
aVmv_mbus_*
p90
aVpaca
p91
aVregister_cxl_calls
p92
aVregister_key_type
p93
aVunregister_cxl_calls
p94
aVmodule:arch/x86/kvm/*
p95
aVmodule:drivers/crypto/ccp/*
p96
aVmodule:drivers/hv/*
p97
aVmodule:drivers/iio/common/hid-sensors/*
p98
aVmodule:drivers/iio/common/st_sensors/**
p99
aVmodule:drivers/net/wireless/**
p100
aVmodule:drivers/nvdimm/*
p101
aVmodule:drivers/power/supply/bq27xxx_battery
p102
aVmodule:drivers/s390/net/qeth
p103
aVmodule:drivers/s390/net/qeth*
p104
aVmodule:drivers/scsi/cxgbi/*
p105
aVmodule:drivers/scsi/libiscs*
p106
aVmodule:drivers/scsi/qla2xxx/qla2xxx
p107
aVmodule:drivers/scsi/ufs/*
p108
aVmodule:drivers/target/**
p109
aVmodule:drivers/usb/chipidea/**
p110
aVmodule:drivers/usb/gadget/**
p111
aVmodule:drivers/usb/host/**
p112
aVmodule:drivers/usb/musb/**
p113
aVmodule:fs/jbd2/jbd2
p114
aVmodule:fs/nfs/nfs
p115
aVmodule:net/ceph/libceph
p116
aVmodule:net/l2tp/**
p117
aVmodule:sound/firewire/snd-firewire-lib
p118
aVtpm_tis_*
p119
aVbtree_*
p120
aVvisitor*
p121
aVcan_rx_register
p122
aVip6_xmit
p123
aVmodule:net/dccp/dccp
p124
aVmodule:net/rds/rds
p125
aVdevfreq_*
p126
aVdevm_devfreq_*
p127
aVupdate_devfreq
p128
aVmodule:drivers/infiniband/**
p129
aVacpi_ec_add_query_handler
p130
aVacpi_ec_remove_query_handler
p131
aVfirst_ec
p132
aVdebugfs_create_automount
p133
aV__clear_rsb
p134
aV__fill_rsb
p135
aVcpu_tlbstate
p136
ass(Vbase
p137
Valpha
p138
tp139
(dp140
Vfeaturesets
p141
(lp142
Vnone
p143
asVkernel-arch
p144
Valpha
p145
ss(Vdescription
p146
g138
NValpha-smp
p147
tp148
(dp149
Vhardware
p150
VAlpha SMP
p151
sVhardware-long
p152
VDEC Alpha SMP systems with extended kernel start address (Wildfire, Titan, Marvel)
p153
ss(Vbuild
p154
g138
tp155
(dp156
Vsigned-modules
p157
I00
sVimage-file
p158
Varch/alpha/boot/vmlinux.gz
p159
ss(Vdescription
p160
g138
NValpha-generic
p161
tp162
(dp163
Vhardware
p164
VAlpha
p165
sVhardware-long
p166
VDEC Alpha systems with extended kernel start address (Wildfire, Titan, Marvel)
p167
ss(Vimage
p168
g138
tp169
(dp170
Vsuggests
p171
Vaboot, fdutils
p172
sVinstall-stem
p173
Vvmlinuz
p174
ss(Vbase
p175
g138
g143
tp176
(dp177
Vflavours
p178
(lp179
Valpha-generic
p180
aValpha-smp
p181
asVimplicit-flavour
p182
I01
ss(Vbase
p183
Vamd64
p184
tp185
(dp186
Vfeaturesets
p187
(lp188
Vnone
p189
aVrt
p190
asVkernel-arch
p191
Vx86
p192
ss(Vdescription
p193
g184
NVamd64
p194
tp195
(dp196
Vhardware
p197
V64-bit PCs
p198
sVhardware-long
p199
VPCs with AMD64, Intel 64 or VIA Nano processors
p200
ss(Vbuild
p201
g184
tp202
(dp203
Vvdso
p204
I01
sVimage-file
p205
Varch/x86/boot/bzImage
p206
sVdebug-info
p207
I01
ss(Vrelations
p208
g184
tp209
(dp210
Vheaders%gcc-6
p211
Vlinux-compiler-gcc-6-x86 (>= 4.9.82-1+deb9u1~)
p212
sVgcc-6
p213
Vgcc-6 (>= 6.3.0-18+deb9u1~) <!stage1 !cross>, gcc-6-@gnu-type-package@ (>= 6.3.0-18+deb9u1~) <!stage1 cross>
p214
ss(Vimage
p215
g184
tp216
(dp217
Vbreaks
p218
Vxserver-xorg-input-vmmouse (<< 1:13.0.99)
p219
sVinstall-stem
p220
Vvmlinuz
p221
sVbootloaders
p222
(lp223
Vgrub-pc
p224
aVgrub-efi-amd64
p225
aVextlinux
p226
ass(Vbase
p227
g184
Vnone
p228
tp229
(dp230
Vflavours
p231
(lp232
Vamd64
p233
ass(Vdescription
p234
g184
g228
Vamd64
p235
tp236
(dp237
Vparts
p238
(lp239
Vxen
p240
ass(Vbase
p241
g184
Vrt
p242
tp243
(dp244
Vflavours
p245
(lp246
Vamd64
p247
ass(Vbase
p248
Varm64
p249
tp250
(dp251
Vfeaturesets
p252
(lp253
Vnone
p254
asVkernel-arch
p255
Varm64
p256
ss(Vdescription
p257
g249
NVarm64
p258
tp259
(dp260
Vhardware
p261
V64-bit ARMv8 machines
p262
ss(Vbuild
p263
g249
tp264
(dp265
Vvdso
p266
I01
sVimage-file
p267
Varch/arm64/boot/Image
p268
sVdebug-info
p269
I01
ss(Vimage
p270
g249
NVarm64
p271
tp272
(dp273
s(Vimage
p274
g249
tp275
(dp276
Vbreaks
p277
Vlibmozjs185-1.0, libmozjs-24-0 (<< 24.2.0-5.1~)
p278
sVinstall-stem
p279
Vvmlinuz
p280
ss(Vbase
p281
g249
Vnone
p282
tp283
(dp284
Vflavours
p285
(lp286
Varm64
p287
ass(Vbase
p288
Varmel
p289
tp290
(dp291
g141
(lp292
g143
asVkernel-arch
p293
Varm
p294
ss(Vbuild
p295
g289
tp296
(dp297
Vsigned-modules
p298
I00
sVimage-file
p299
Varch/arm/boot/zImage
p300
ss(Vimage
p301
g289
NVmarvell
p302
tp303
(dp304
Vrecommends
p305
Vu-boot-tools
p306
sVbreaks
p307
Vflash-kernel (<< 3.57~)
p308
sVcheck-size-with-dtb
p309
I01
sVcheck-size
p310
L2097080L
ss(Vdescription
p311
g289
NVmarvell
p312
tp313
(dp314
Vhardware
p315
VMarvell Kirkwood/Orion
p316
sVhardware-long
p317
VMarvell Kirkwood based systems (SheevaPlug, QNAP TS-119/TS-219, etc)\u000aand Orion 5181, 5182 and 5281 based systems (QNAP TS-109/TS-209, etc)
p318
ss(Vrelations
p319
g289
tp320
(dp321
Vheaders%gcc-6
p322
Vlinux-compiler-gcc-6-arm
p323
ss(Vimage
p324
g289
tp325
(dp326
Vinstall-stem
p327
Vvmlinuz
p328
ss(g175
g289
g143
tp329
(dp330
g178
(lp331
Vmarvell
p332
asg182
I01
ss(Vbase
p333
Varmhf
p334
tp335
(dp336
g141
(lp337
g143
asVkernel-arch
p338
Varm
p339
ss(Vdescription
p340
g334
NVarmmp
p341
tp342
(dp343
Vhardware
p344
VARMv7 multiplatform compatible SoCs
p345
sVhardware-long
p346
VARMv7 multiplatform kernel. See\u000ahttps://wiki.debian.org/DebianKernel/ARMMP for details of supported\u000aplatforms
p347
ss(Vbuild
p348
g334
tp349
(dp350
Vvdso
p351
I01
sVimage-file
p352
Varch/arm/boot/zImage
p353
ss(Vdescription
p354
g334
NVarmmp-lpae
p355
tp356
(dp357
Vhardware
p358
VARMv7 multiplatform compatible SoCs supporting LPAE
p359
sVhardware-long
p360
VARMv7 multiplatform kernel supporting LPAE. See\u000ahttps://wiki.debian.org/DebianKernel/ARMMP for details of supported\u000aplatforms.
p361
ss(Vrelations
p362
g334
tp363
(dp364
Vheaders%gcc-6
p365
Vlinux-compiler-gcc-6-arm
p366
ss(Vimage
p367
g334
tp368
(dp369
Vinstall-stem
p370
Vvmlinuz
p371
ss(g175
g334
g143
tp372
(dp373
g178
(lp374
Varmmp
p375
aVarmmp-lpae
p376
asg182
I01
ss(Vbase
p377
Vhppa
p378
tp379
(dp380
g141
(lp381
g143
asVkernel-arch
p382
Vparisc
p383
ss(Vbuild
p384
g378
tp385
(dp386
Vsigned-modules
p387
I00
sVimage-file
p388
Vvmlinux
p389
ss(Vdescription
p390
g378
NVparisc64-smp
p391
tp392
(dp393
Vhardware
p394
Vmultiprocessor 64-bit PA-RISC
p395
sVhardware-long
p396
VHP PA-RISC 64-bit SMP systems with support for more than 4 GB RAM
p397
ss(Vbase
p398
g378
NVparisc64-smp
p399
tp400
(dp401
Vcflags
p402
V-fno-cse-follow-jumps
p403
sVoverride-host-type
p404
Vhppa64-linux-gnu
p405
ss(Vrelations
p406
g378
tp407
(dp408
Vgcc-6
p409
Vgcc-6 <!stage1 !cross>, binutils-hppa64-linux-gnu <!stage1 !cross>, gcc-6-hppa64-linux-gnu <!stage1 !cross>, gcc-6-hppa-linux-gnu <!stage1 cross>, binutils-hppa64-linux-gnu <!stage1 cross>, gcc-6-hppa64-linux-gnu <!stage1 cross>
p410
ss(Vdescription
p411
g378
NVparisc
p412
tp413
(dp414
Vhardware
p415
V32-bit PA-RISC
p416
sVhardware-long
p417
VHP PA-RISC 32-bit systems with max 4 GB RAM
p418
ss(Vimage
p419
g378
tp420
(dp421
Vsuggests
p422
Vpalo
p423
sVinstall-stem
p424
Vvmlinux
p425
ss(g175
g378
g143
tp426
(dp427
g178
(lp428
Vparisc
p429
aVparisc64-smp
p430
asg182
I01
ss(Vbase
p431
Vi386
p432
tp433
(dp434
Vfeaturesets
p435
(lp436
Vnone
p437
aVrt
p438
asVkernel-arch
p439
Vx86
p440
ss(Vbuild
p441
g432
tp442
(dp443
Vvdso
p444
I01
sVimage-file
p445
Varch/x86/boot/bzImage
p446
ss(Vdescription
p447
g432
NV686-pae
p448
tp449
(dp450
Vhardware
p451
Vmodern PCs
p452
sVhardware-long
p453
VPCs with one or more processors supporting PAE
p454
sVparts
p455
(lp456
Vpae
p457
ass(Vdescription
p458
g432
tp459
(dp460
Vpart-long-pae
p461
VThis kernel requires PAE (Physical Address Extension).\u000aThis feature is supported by the Intel Pentium Pro/II/III/4/4M/D, Xeon,\u000aCore and Atom; AMD Geode NX, Athlon (K7), Duron, Opteron, Sempron,\u000aTurion or Phenom; Transmeta Efficeon; VIA C7; and some other processors.
p462
ss(Vbuild
p463
g432
NV686-pae
p464
tp465
(dp466
Vdebug-info
p467
I01
ss(Vdescription
p468
g432
NV686
p469
tp470
(dp471
Vhardware
p472
Volder PCs
p473
sVhardware-long
p474
VPCs with one or more processors not supporting PAE
p475
ss(Vrelations
p476
g432
tp477
(dp478
Vheaders%gcc-6
p479
Vlinux-compiler-gcc-6-x86 (>= 4.9.82-1+deb9u1~)
p480
sVgcc-6
p481
Vgcc-6 (>= 6.3.0-18+deb9u1~) <!stage1 !cross>, gcc-6-@gnu-type-package@ (>= 6.3.0-18+deb9u1~) <!stage1 cross>
p482
ss(Vimage
p483
g432
tp484
(dp485
Vbreaks
p486
Vxserver-xorg-input-vmmouse (<< 1:13.0.99)
p487
sVinstall-stem
p488
Vvmlinuz
p489
sVbootloaders
p490
(lp491
Vgrub-pc
p492
aVextlinux
p493
ass(Vbase
p494
g432
Vnone
p495
tp496
(dp497
Vflavours
p498
(lp499
V686
p500
aV686-pae
p501
ass(Vdescription
p502
g432
g495
V686-pae
p503
tp504
(dp505
Vparts
p506
(lp507
Vxen
p508
ass(Vbase
p509
g432
Vrt
p510
tp511
(dp512
Vflavours
p513
(lp514
V686-pae
p515
ass(Vbase
p516
Vm68k
p517
tp518
(dp519
Vcflags
p520
V-ffreestanding
p521
sg141
(lp522
g143
asVkernel-arch
p523
Vm68k
p524
ss(Vbuild
p525
g517
tp526
(dp527
Vsigned-modules
p528
I00
sVimage-file
p529
Vvmlinux.gz
p530
ss(Vdescription
p531
g517
NVm68k
p532
tp533
(dp534
Vhardware
p535
VMotorola MC68020+ family
p536
ss(Vimage
p537
g517
tp538
(dp539
Vsuggests
p540
Vvmelilo, fdutils
p541
sVinstall-stem
p542
Vvmlinuz
p543
ss(g175
g517
g143
tp544
(dp545
g178
(lp546
Vm68k
p547
asg182
I01
ss(Vbase
p548
Vmips
p549
tp550
(dp551
g141
(lp552
g143
asVkernel-arch
p553
Vmips
p554
ss(Vbuild
p555
g549
tp556
(dp557
Vsigned-modules
p558
I00
sVimage-file
p559
Vvmlinux
p560
ss(Vimage
p561
g549
NV4kc-malta
p562
tp563
(dp564
Vconfigs
p565
(lp566
Vkernelarch-mips/config.malta
p567
aVkernelarch-mips/config.mips32r2
p568
ass(Vimage
p569
g549
NV5kc-malta
p570
tp571
(dp572
Vconfigs
p573
(lp574
Vkernelarch-mips/config.malta
p575
aVkernelarch-mips/config.mips64r2
p576
ass(Vdescription
p577
g549
NVocteon
p578
tp579
(dp580
Vhardware
p581
VOcteon
p582
sVhardware-long
p583
VCavium Networks Octeon
p584
ss(Vimage
p585
g549
NVocteon
p586
tp587
(dp588
Vconfigs
p589
(lp590
Vkernelarch-mips/config.octeon
p591
ass(Vimage
p592
g549
tp593
(dp594
Vinstall-stem
p595
Vvmlinux
p596
ss(Vdescription
p597
g549
NV5kc-malta
p598
tp599
(dp600
Vhardware
p601
VMIPS Malta (64-bit)
p602
sVhardware-long
p603
VMIPS Malta boards (64-bit)
p604
ss(Vdescription
p605
g549
NV4kc-malta
p606
tp607
(dp608
Vhardware
p609
VMIPS Malta
p610
sVhardware-long
p611
VMIPS Malta boards
p612
ss(g175
g549
g143
tp613
(dp614
g178
(lp615
V4kc-malta
p616
aV5kc-malta
p617
aVocteon
p618
asg182
I01
ss(Vbase
p619
Vmipsel
p620
tp621
(dp622
g141
(lp623
g143
asVkernel-arch
p624
Vmips
p625
ss(Vimage
p626
g620
NVloongson-3
p627
tp628
(dp629
Vconfigs
p630
(lp631
Vkernelarch-mips/config.loongson-3
p632
ass(Vbuild
p633
g620
tp634
(dp635
Vsigned-modules
p636
I00
sVimage-file
p637
Vvmlinux
p638
ss(Vimage
p639
g620
NV4kc-malta
p640
tp641
(dp642
Vconfigs
p643
(lp644
Vkernelarch-mips/config.malta
p645
aVkernelarch-mips/config.mips32r2
p646
ass(Vimage
p647
g620
NV5kc-malta
p648
tp649
(dp650
Vconfigs
p651
(lp652
Vkernelarch-mips/config.malta
p653
aVkernelarch-mips/config.mips64r2
p654
ass(Vdescription
p655
g620
NVocteon
p656
tp657
(dp658
Vhardware
p659
VOcteon
p660
sVhardware-long
p661
VCavium Networks Octeon
p662
ss(Vdescription
p663
g620
NVloongson-3
p664
tp665
(dp666
Vhardware
p667
VLoongson 3A/3B
p668
sVhardware-long
p669
VLoongson 3A or 3B based systems (e.g. from Loongson or Lemote)
p670
ss(Vimage
p671
g620
NVocteon
p672
tp673
(dp674
Vconfigs
p675
(lp676
Vkernelarch-mips/config.octeon
p677
ass(Vimage
p678
g620
tp679
(dp680
Vinstall-stem
p681
Vvmlinux
p682
ss(Vdescription
p683
g620
NV5kc-malta
p684
tp685
(dp686
Vhardware
p687
VMIPS Malta (64-bit)
p688
sVhardware-long
p689
VMIPS Malta boards (64-bit)
p690
ss(Vdescription
p691
g620
NV4kc-malta
p692
tp693
(dp694
Vhardware
p695
VMIPS Malta
p696
sVhardware-long
p697
VMIPS Malta boards
p698
ss(g175
g620
g143
tp699
(dp700
g178
(lp701
V4kc-malta
p702
aV5kc-malta
p703
aVloongson-3
p704
aVocteon
p705
asg182
I01
ss(Vbase
p706
Vmipsn32
p707
tp708
(dp709
Vfeaturesets
p710
(lp711
sVkernel-arch
p712
Vmips
p713
ss(Vbase
p714
Vmipsn32el
p715
tp716
(dp717
Vfeaturesets
p718
(lp719
sVkernel-arch
p720
Vmips
p721
ss(Vbase
p722
Vmips64
p723
tp724
(dp725
g141
(lp726
g143
asVkernel-arch
p727
Vmips
p728
ss(Vbuild
p729
g723
tp730
(dp731
Vsigned-modules
p732
I00
sVimage-file
p733
Vvmlinux
p734
ss(Vimage
p735
g723
NV5kc-malta
p736
tp737
(dp738
Vconfigs
p739
(lp740
Vkernelarch-mips/config.malta
p741
aVkernelarch-mips/config.mips64r2
p742
ass(Vdescription
p743
g723
NVocteon
p744
tp745
(dp746
Vhardware
p747
VOcteon
p748
sVhardware-long
p749
VCavium Networks Octeon
p750
ss(Vimage
p751
g723
tp752
(dp753
Vinstall-stem
p754
Vvmlinux
p755
ss(Vdescription
p756
g723
NV5kc-malta
p757
tp758
(dp759
Vhardware
p760
VMIPS Malta
p761
sVhardware-long
p762
VMIPS Malta boards
p763
ss(Vimage
p764
g723
NVocteon
p765
tp766
(dp767
Vconfigs
p768
(lp769
Vkernelarch-mips/config.octeon
p770
ass(g175
g723
g143
tp771
(dp772
g178
(lp773
V5kc-malta
p774
aVocteon
p775
asg182
I01
ss(Vbase
p776
Vmips64el
p777
tp778
(dp779
g141
(lp780
g143
asVkernel-arch
p781
Vmips
p782
ss(Vimage
p783
g777
NVloongson-3
p784
tp785
(dp786
Vconfigs
p787
(lp788
Vkernelarch-mips/config.loongson-3
p789
ass(Vbuild
p790
g777
tp791
(dp792
Vsigned-modules
p793
I00
sVimage-file
p794
Vvmlinux
p795
ss(Vimage
p796
g777
NV5kc-malta
p797
tp798
(dp799
Vconfigs
p800
(lp801
Vkernelarch-mips/config.malta
p802
aVkernelarch-mips/config.mips64r2
p803
ass(Vdescription
p804
g777
NVocteon
p805
tp806
(dp807
Vhardware
p808
VOcteon
p809
sVhardware-long
p810
VCavium Networks Octeon
p811
ss(Vdescription
p812
g777
NVloongson-3
p813
tp814
(dp815
Vhardware
p816
VLoongson 3A/3B
p817
sVhardware-long
p818
VLoongson 3A or 3B based systems (e.g. from Loongson or Lemote)
p819
ss(Vimage
p820
g777
tp821
(dp822
Vinstall-stem
p823
Vvmlinux
p824
ss(Vdescription
p825
g777
NV5kc-malta
p826
tp827
(dp828
Vhardware
p829
VMIPS Malta
p830
sVhardware-long
p831
VMIPS Malta boards
p832
ss(Vimage
p833
g777
NVocteon
p834
tp835
(dp836
Vconfigs
p837
(lp838
Vkernelarch-mips/config.octeon
p839
ass(g175
g777
g143
tp840
(dp841
g178
(lp842
V5kc-malta
p843
aVloongson-3
p844
aVocteon
p845
asg182
I01
ss(Vbase
p846
Vpowerpc
p847
tp848
(dp849
g141
(lp850
g143
asVkernel-arch
p851
Vpowerpc
p852
ss(Vdescription
p853
g847
NVpowerpc64
p854
tp855
(dp856
Vhardware
p857
V64-bit PowerPC
p858
ss(Vbuild
p859
g847
tp860
(dp861
Vvdso
p862
I01
sVimage-file
p863
Vvmlinux
p864
ss(Vimage
p865
g847
NVpowerpc-smp
p866
tp867
(dp868
Vconfigs
p869
(lp870
Vpowerpc/config.powerpc
p871
aVpowerpc/config.powerpc-smp
p872
ass(Vdescription
p873
g847
NVpowerpc
p874
tp875
(dp876
Vhardware
p877
Vuniprocessor 32-bit PowerPC
p878
ss(Vimage
p879
g847
NVpowerpc64
p880
tp881
(dp882
Vconfigs
p883
(lp884
Vkernelarch-powerpc/config-arch-64
p885
aVkernelarch-powerpc/config-arch-64-be
p886
ass(Vdescription
p887
g847
NVpowerpc-smp
p888
tp889
(dp890
Vhardware
p891
Vmultiprocessor 32-bit PowerPC
p892
ss(Vimage
p893
g847
tp894
(dp895
Vsuggests
p896
Vmkvmlinuz
p897
sVinstall-stem
p898
Vvmlinux
p899
sVconfigs
p900
(lp901
ss(g175
g847
g143
tp902
(dp903
g178
(lp904
Vpowerpc
p905
aVpowerpc-smp
p906
aVpowerpc64
p907
asg182
I01
ss(Vbase
p908
Vpowerpcspe
p909
tp910
(dp911
g141
(lp912
g143
asVkernel-arch
p913
Vpowerpc
p914
ss(Vbuild
p915
g909
tp916
(dp917
Vsigned-modules
p918
I00
sVimage-file
p919
Vvmlinux
p920
sVvdso
p921
I01
ss(Vimage
p922
g909
tp923
(dp924
Vsuggests
p925
Vmkvmlinuz
p926
sVinstall-stem
p927
Vvmlinux
p928
ss(Vdescription
p929
g909
tp930
(dp931
Vhardware
p932
V32-bit PowerPC with SPE (instead of AltiVec) with SMP support
p933
ss(g175
g909
g143
tp934
(dp935
g178
(lp936
Vpowerpcspe
p937
asg182
I01
ss(Vbase
p938
Vppc64
p939
tp940
(dp941
g141
(lp942
g143
asVkernel-arch
p943
Vpowerpc
p944
ss(Vdescription
p945
g939
NVpowerpc64
p946
tp947
(dp948
Vhardware
p949
V64-bit PowerPC
p950
ss(Vbuild
p951
g939
tp952
(dp953
Vsigned-modules
p954
I00
sVimage-file
p955
Vvmlinux
p956
sVvdso
p957
I01
ss(Vimage
p958
g939
NVpowerpc64
p959
tp960
(dp961
Vconfigs
p962
(lp963
Vkernelarch-powerpc/config-arch-64
p964
aVkernelarch-powerpc/config-arch-64-be
p965
ass(Vimage
p966
g939
tp967
(dp968
Vsuggests
p969
Vmkvmlinuz
p970
sVinstall-stem
p971
Vvmlinux
p972
sVconfigs
p973
(lp974
ss(g175
g939
g143
tp975
(dp976
g178
(lp977
Vpowerpc64
p978
asg182
I01
ss(Vbase
p979
Vppc64el
p980
tp981
(dp982
g141
(lp983
g143
asVkernel-arch
p984
Vpowerpc
p985
ss(Vdescription
p986
g980
NVpowerpc64le
p987
tp988
(dp989
Vhardware
p990
VLittle-endian 64-bit PowerPC
p991
ss(Vbuild
p992
g980
tp993
(dp994
Vvdso
p995
I01
sVimage-file
p996
Vvmlinux
p997
ss(Vimage
p998
g980
tp999
(dp1000
Vsuggests
p1001
Vmkvmlinuz
p1002
sVinstall-stem
p1003
Vvmlinux
p1004
sVconfigs
p1005
(lp1006
ss(Vimage
p1007
g980
NVpowerpc64le
p1008
tp1009
(dp1010
Vconfigs
p1011
(lp1012
Vkernelarch-powerpc/config-arch-64
p1013
aVkernelarch-powerpc/config-arch-64-le
p1014
ass(g175
g980
g143
tp1015
(dp1016
g178
(lp1017
Vpowerpc64le
p1018
asg182
I01
ss(Vbase
p1019
Vs390
p1020
tp1021
(dp1022
Vfeaturesets
p1023
(lp1024
sVkernel-arch
p1025
Vs390
p1026
ss(Vbase
p1027
Vs390x
p1028
tp1029
(dp1030
g141
(lp1031
g143
asVkernel-arch
p1032
Vs390
p1033
ss(Vdescription
p1034
g1028
NVs390x
p1035
tp1036
(dp1037
Vhardware
p1038
VIBM zSeries
p1039
ss(Vbuild
p1040
g1028
tp1041
(dp1042
Vvdso
p1043
I01
sVimage-file
p1044
Varch/s390/boot/image
p1045
ss(Vbuild
p1046
g1028
NVs390x
p1047
tp1048
(dp1049
Vdebug-info
p1050
I01
ss(Vrelations
p1051
g1028
tp1052
(dp1053
Vheaders%gcc-6
p1054
Vlinux-compiler-gcc-6-s390
p1055
ss(Vimage
p1056
g1028
tp1057
(dp1058
Vinstall-stem
p1059
Vvmlinuz
p1060
sVbootloaders
p1061
(lp1062
Vs390-tools
p1063
ass(g175
g1028
g143
tp1064
(dp1065
g178
(lp1066
Vs390x
p1067
asg182
I01
ss(Vbase
p1068
Vsh3
p1069
tp1070
(dp1071
Vfeaturesets
p1072
(lp1073
sVkernel-arch
p1074
Vsh
p1075
ss(Vbase
p1076
Vsh4
p1077
tp1078
(dp1079
g141
(lp1080
g143
asVkernel-arch
p1081
Vsh
p1082
ss(Vbuild
p1083
g1077
tp1084
(dp1085
Vsigned-modules
p1086
I00
sVimage-file
p1087
Varch/sh/boot/zImage
p1088
ss(Vdescription
p1089
g1077
NVsh7751r
p1090
tp1091
(dp1092
Vhardware
p1093
Vsh7751r
p1094
sVhardware-long
p1095
VRenesas SH7751R R2D plus board
p1096
ss(Vdescription
p1097
g1077
NVsh7785lcr
p1098
tp1099
(dp1100
Vhardware
p1101
Vsh7785lcr
p1102
sVhardware-long
p1103
VRenesas SH7785 reference board
p1104
ss(Vimage
p1105
g1077
tp1106
(dp1107
Vinstall-stem
p1108
Vvmlinuz
p1109
ss(Vimage
p1110
g1077
NVsh7785lcr
p1111
tp1112
(dp1113
Vrecommends
p1114
Vu-boot-tools
p1115
sVcheck-size
p1116
L4194304L
ss(g175
g1077
g143
tp1117
(dp1118
g178
(lp1119
Vsh7751r
p1120
aVsh7785lcr
p1121
asg182
I01
ss(Vbase
p1122
Vsparc
p1123
tp1124
(dp1125
Vfeaturesets
p1126
(lp1127
sVkernel-arch
p1128
Vsparc
p1129
ss(Vbase
p1130
Vsparc64
p1131
tp1132
(dp1133
g141
(lp1134
g143
asVkernel-arch
p1135
Vsparc
p1136
ss(Vbuild
p1137
g1131
tp1138
(dp1139
Vsigned-modules
p1140
I00
sVimage-file
p1141
Varch/sparc/boot/zImage
p1142
ss(Vimage
p1143
g1131
NVsparc64
p1144
tp1145
(dp1146
Vconfigs
p1147
(lp1148
Vkernelarch-sparc/config-up
p1149
ass(Vimage
p1150
g1131
NVsparc64-smp
p1151
tp1152
(dp1153
Vconfigs
p1154
(lp1155
Vkernelarch-sparc/config-smp
p1156
ass(Vimage
p1157
g1131
tp1158
(dp1159
Vsuggests
p1160
Vsilo, fdutils
p1161
sVinstall-stem
p1162
Vvmlinuz
p1163
sVconfigs
p1164
(lp1165
ss(Vdescription
p1166
g1131
NVsparc64-smp
p1167
tp1168
(dp1169
Vhardware
p1170
Vmultiprocessor 64-bit UltraSPARC
p1171
ss(Vdescription
p1172
g1131
NVsparc64
p1173
tp1174
(dp1175
Vhardware
p1176
Vuniprocessor 64-bit UltraSPARC
p1177
ss(g175
g1131
g143
tp1178
(dp1179
g178
(lp1180
Vsparc64
p1181
aVsparc64-smp
p1182
asg182
I01
ss(Vbase
p1183
Vtilegx
p1184
tp1185
(dp1186
Vfeaturesets
p1187
(lp1188
sVkernel-arch
p1189
Vtile
p1190
ss(Vbase
p1191
Vx32
p1192
tp1193
(dp1194
Vfeaturesets
p1195
(lp1196
sVkernel-arch
p1197
Vx86
p1198
ss(Vdescription
p1199
NVrt
p1200
tp1201
(dp1202
Vparts
p1203
(lp1204
Vrt
p1205
asVpart-long-rt
p1206
VThis kernel includes the PREEMPT_RT realtime patch set.
p1207
sVpart-short-rt
p1208
VPREEMPT_RT
p1209
ss(Vabi
p1210
Ng1200
tp1211
(dp1212
Vignore-changes
p1213
(lp1214
V*
p1215
ass(Vversion
p1216
tp1217
(dp1218
Vupstream
p1219
V4.9
p1220
sVsource
p1221
V4.9.88-1+deb9u1
p1222
sVabiname
p1223
V4.9.0-6
p1224
sVabiname_base
p1225
V4.9.0
p1226
ss.